(dp1
S'output'
p2
S"<type 'exceptions.ValueError'> invalid literal for int() with base 10: 'Horas de estudio:78'"
p3
sS'layer'
p4
S'/home/eddiel/ProyectoTerminal/proyecto_terminal/applications/OririPro/controllers/Juego.py'
p5
sS'code'
p6
S'pericia=0\nTerceraOportunidad=0\nsession.ma=[]\ncont=0\n# coding: utf8\n# intente algo como\n#TODO: Agregar parciales y sacar promedio de ellas\n# Agregar encuesta y ponderar puntos por contestar\n# Agregar dinero y canje por puntos de encuestas\n\n@auth.requires_login()\ndef index():##TODO leer partidas pues este solo crea nuevas partidas enbelleser\n    car=request.vars[\'c\']\n    if not car:\n        redirect(URL(\'default\',\'index\'))\n    else:\n        carrera=db(db.Carrera.Titulo==car).select().first()\n        Partida=db.Partida.insert(IdUsuario=auth.user.id,IdCarrera=carrera.id,BajasTemporales=0,Dinero=2500,Creditos=0,Estado=1,SoftSkills=100,VidaFamiliar=100,VidaSocial=100,VidaLaboral=100)\n        #Partida=db(db.Partida.IdUsuario==auth.user.id).select().last()\n        session.partida=Partida\n        session.semestre=0\n        Academias=db(db.Academia.IdCarrera==carrera.id).select()\n        for academia in Academias:\n            db.NivelPericia.insert(IdPartida=Partida.id,IdAcademia=academia.id,Pericia=10)\n        redirect(URL(\'perfil\'))\n    return locals()\n\n@auth.requires_login()\ndef perfil():##Reglas de terminacion de juego en funcion GameOver\n    if not session.partida:\n        redirect(URL(\'default\',\'index\'))\n    else:\n        pericia=db(db.NivelPericia.IdPartida==session.partida).select()\n        partida=db(db.Partida.id==session.partida).select().first()\n        semestre=db(db.Semestre.IdPartida==session.partida).select().last()\n        db(db.Partida.id==session.partida).update(Estado=Estado(semestre))\n        partida=db(db.Partida.id==session.partida).select().first()\n        if semestre:\n                session.semestre=semestre.Numero#selecciona el ultimo semestre\n    return locals()\n\ndef Estado(semestre):\n    reprobadas=db((db.Calificacion.IdPartida==session.partida) & (db.Calificacion.Aprobada==2)).select()\n    if reprobadas:\n        estado=2\n    else:\n        estado=1\n    if semestre:\n        CursadasUltimoSemestre=db(db.Calificacion.IdSemestre==semestre.id).select()\n        reprobadasUltimoSemestre=db((db.Calificacion.IdSemestre==semestre.id) & (db.Calificacion.Aprobada==2)).select()\n        limite=len(CursadasUltimoSemestre)/2\n        reprobadas=len(reprobadasUltimoSemestre)\n        if reprobadas>=limite:\n            estado=3\n    if GameOver():\n        estado=4\n    session.estado=estado\n    return estado\n\ndef savetime():#guarda el tiempo que se le dedica al estudio\n        if not session.partida:\n            redirect(URL(\'default\',\'index\'))\n        else:\n            x=int(request.vars[\'time\'])\n            y=int(request.vars[\'trabajo\'])\n            ts=int(request.vars[\'social\'])\n            tf=int(request.vars[\'familia\'])\n            session.time=int((x/100.00)*168)#porcentaje pasado a horas de estudio\n            session.trabajo=y\n            session.familia=tf\n            session.social=ts\n            redirect=URL(\'ofertada\')\n            session.parcial=1;\n        return 1\n\n@auth.requires_login()\ndef oferta():\n    if not session.partida:\n        redirect(URL(\'default\',\'index\'))\n    else:\n        if not session.semestre:\n            db.Semestre.insert(IdPartida=session.partida,Numero=1)#si no existe semestre inicializa en 1\n        else:\n            semestre=db(db.Semestre.IdPartida==session.partida).select().last()#selecciona el objeto del ultimo semestre\n            db.Semestre.insert(IdPartida=session.partida,Numero=semestre.Numero+1)# Y agrega un semestre mas\n        semestre=db(db.Semestre.IdPartida==session.partida).select().last()\n        ofertada=[None]#Lista de oferta de materias bacia\n        session.semestre=semestre.Numero#guarda en una variable de session el semestre\n        materias=db(db.Materia).select(orderby=db.Materia.Ciclo)#Selecciona todas las materias ordenadas por siclo TODO:Quitar las aprobadas\n        aprobadas=db((db.Calificacion.IdPartida==session.partida)&(db.Calificacion.Aprobada==1)).select()\n        for materia in materias:\n            ofertada.append(curso(materia.id,aprobadas))\n        ofertada=list(set(ofertada))\n        del ofertada[ofertada.index(None)]\n    return locals()\n\nimport random\ndef curso(materia,pasadas):##colocar que materias se han pasado y su oportunidad\n    if pasadas:\n        for aprobada in pasadas:\n            if aprobada.IdMateriaDocente.IdMateria==materia:\n                return\n            else:\n                ofertada=db(db.Materia_Docente.IdMateria==materia).select(limitby=(0, 1), orderby=\'<random>\')#selecciona de manera aleatoria la oferta segun el docente\n    else:\n        ofertada=db(db.Materia_Docente.IdMateria==materia).select(limitby=(0, 1), orderby=\'<random>\')\n    return ofertada\n\ndef addMateria():##ingresa por semestre las materias\n    IdMD=request.get_vars\n    semestre=db(db.Semestre.IdPartida==session.partida).select().last()\n    m=db.Calificacion.insert(IdMateriaDocente=IdMD.id,Calificacion=10,IdSemestre=semestre.id,Oportunidad=GetOportunidad(IdMD.id),IdPartida=session.partida)\n    db.Parcial.insert(IdCalificacion=m.id,p1=0,p2=0,p3=0,promedio=0)\n    return locals()\n\ndef GetOportunidad(IdMD):## Optiene oportunidad mas 1\n    foo=0\n    semestres=db(db.Semestre.IdPartida==session.partida).select()\n    Materia=db(db.Materia_Docente.id==IdMD).select().last()\n    for semestre in semestres:\n        Temp=db(db.Calificacion.IdSemestre==semestre.id).select()\n        for calificacion in Temp:\n            if calificacion.IdMateriaDocente.IdMateria==Materia.IdMateria:\n                foo=foo+1\n    if not foo:\n     return 1\n    else:\n     return foo\n\n@auth.requires_login()\ndef ronda():#selecciona las materias cagadas del semestre en session\n    if not session.partida:\n        redirect(URL(\'default\',\'index\'))\n    else:\n        semestre=db((db.Semestre.IdPartida==session.partida)&(db.Semestre.Numero==session.semestre)).select().last\n        materias=db(db.Calificacion.IdSemestre==semestre.id).select()\n    return locals()\n\n@auth.requires_login()\ndef carga():\n    if not session.partida:\n        redirect(URL(\'default\',\'index\'))\n    else:\n        semestre=db(db.Semestre.IdPartida==session.partida).select().last()\n        carga=db(db.Calificacion.IdSemestre==semestre.id).select()\n        for i in carga:\n            session.ma.append(db(db.Parcial.IdCalificacion==i.id).select().first())\n        m=0\n        if len(carga)<3:\n            db(db.Partida.id==session.partida).update(BajasTemporales=GetBajasTemporales()+1)\n            m=\'Baja temporal\'\n        partida=db(db.Partida.id==session.partida).select().first()\n        if partida.Dinero<2300 and session.parcial==1:\n            db(db.Partida.id==session.partida).update(BajasTemporales=GetBajasTemporales()+1)\n            m=\'Baja temporal:Sin fondos para cursar el siguiente semestre\'\n        elif session.parcial==1:\n            db(db.Partida.id==session.partida).update(Dinero=partida.Dinero-2300)\n    return locals()\n\ndef GetBajasTemporales():#Regresa las bajas temporales\n    Partida=db(db.Partida.id==session.partida).select().first()\n    return Partida.BajasTemporales\n\ndef SetCalificacion():#regresa la calificacion dependiente de NivelExigenciaDoc,DifMateria,Varianza,Pericia,Tiempo,Creditos\n    #time tiempo total tiempo tiempo de 1 materia\n    var=request.get_vars\n    idcalf=int(var.id)\n    time=int(var.time)#Tiempo Total de estudio TODO: MENOR QUE 0 return message\n    tiempo=var.tiempo\n    #calf=calf-1\n    dbCal=db(db.Calificacion.id==idcalf).select().first()\n    partida=db(db.Partida.id==session.partida).select().first()\n    Creditos=dbCal.IdMateriaDocente.IdMateria.Creditos #Creditos\n    Promedio=dbCal.IdMateriaDocente.IdMateria.Media #Promedio de materia\n    DifMD=dbCal.IdMateriaDocente.IdDocente.Dificultad#Dificultad Docente\n    V=dbCal.IdMateriaDocente.IdMateria.Varianza\n    IDMateria=dbCal.IdMateriaDocente.IdMateria\n    print IDMateria\n    if tiempo=="plus10":#T= tiempo dedicado a esa materia\n        T=10\n        time=time-10\n    elif tiempo=="plus8":\n        T=8\n        time=time-8\n    elif tiempo=="plus6":\n        T=6\n        time=time-6\n    elif tiempo=="plus4":\n        T=4\n        time=time-4\n    rand=random.uniform(-1*(V),V)\n    calf=4*(T/float(Creditos))+0.01*MediaPericia(IDMateria)+0.3*(10-DifMD)+0.2*Promedio+rand#metodo de regresion lineal multiple\n    VS=CalcularVidaSocial(partida.VidaSocial,session.social)\n    VF=CalcularVidaFamiliar(partida.VidaFamiliar,session.familia)\n    VL=VidaLaboral(partida.VidaLaboral,session.trabajo)\n    SS=CalcularSoftSkills(VS,VF,VL)\n    pericia=CalcularPericia(DifMD,Promedio,IDMateria,calf,SS)#calcular pericia TODO SS Softskills\n    calf=int(round(calf))\n    if calf >10:\n        calf=10\n    promedio=GuardaParcial(idcalf,calf)\n    return response.json([{\'time\':time},{\'calf\':calf},{\'promedio\':int(promedio)}])\n\ndef GuardaParcial(idcalf,cal):\n    if session.parcial==2:\n        promedio=cal\n        db(db.Parcial.IdCalificacion==idcalf).update(p1=cal,promedio=cal)\n    elif session.parcial==3:\n        parcial=db(db.Parcial.IdCalificacion==idcalf).select().first()\n        promedio=(cal+parcial.p1)/2.00\n        db(db.Parcial.IdCalificacion==idcalf).update(p2=cal,promedio=promedio)\n    elif session.parcial==4:\n         parcial=db(db.Parcial.IdCalificacion==idcalf).select().first()\n         promedio=(cal+parcial.p1+parcial.p2)/3.00\n         db(db.Parcial.IdCalificacion==idcalf).update(p3=cal,promedio=promedio)\n    return promedio\n\ndef FinalizaSemestre():\n    semestre=db(db.Semestre.IdPartida==session.partida).select().last()\n    carga=db(db.Calificacion.IdSemestre==semestre.id).select()\n    for materia in carga:\n        final=db(db.Parcial.IdCalificacion==materia.id).select().first()\n        db(db.Calificacion.id==materia.id).update(Calificacion=final.promedio)\n        if final.promedio>6:\n            db(db.Calificacion.id==materia.id).update(Aprobada=1)#Estado 1 indica aprobada estado 2 indica reprobada\n        else:\n            db(db.Calificacion.id==materia.id).update(Aprobada=2)\n        Mat=db(db.Materia_Docente.id==materia.IdMateriaDocente).select().first()\n        Creditos=db(db.Materia.id==Mat.IdMateria).select().first()## obtiene los creditos de la materia\n        Acumulado=db(db.Partida.id==session.partida).select().first()\n        TCreditos=Creditos.Creditos+Acumulado.Creditos\n        db(db.Partida.id==session.partida).update(Creditos=TCreditos)\n    CalculaDinero()\n    redirect(URL(\'perfil\'))\n    return locals()\n\ndef CalculaDinero():\n    partida=db(db.Partida.id==session.partida).select().first()\n    Din=partida.Dinero+session.trabajo*100\n    db(db.Partida.id==session.partida).update(Dinero=Din)\n    return True\n\n\ndef CalcularPericia(DifMD,Promedio,IdMateria,cal,SS):#en funcion de exigenciaMaestro\n    pericia=(0.2*(1+DifMD)+0.2*(10-Promedio)+0.02*MediaPericia(IdMateria)+0.3*cal+0.1*SS)*10\n    return pericia\n\nimport math\ndef CalcularVidaSocial(VS,TS):#en funcion de TiempoSocial,VidaSocial y un random\n    VSocial=int(100*(1-math.exp(-1*(int(VS/7)+int(TS/2)))))# apartir de int(VS/7)+int(TS/2)=25 da 100\n    return VSocial\n\ndef CalcularVidaFamiliar(VF,TF):#en funcion de TiempoFamiliar,VidaFamiliar y un random\n    VFamiliar=(random.uniform(-1*(4),4))*10+(VF+TF)/2\n    return VFamiliar\n\ndef VidaLaboral(VL,TL):#depende de VidaLaboral,TiempoLaboral\n    VLaboral=(random.uniform(-1*(1),1))*10+(VL+TL)/2\n    return VLaboral\n\ndef CalcularSoftSkills(VS,VF,VL):#En funcion de Vida social,Vida Familiar,VidaLaboral.\n    SS=int((VS+VF+VL)/3.00)\n    return SS\n\ndef MediaPericia(IDMat):##Obtiene la media para cursar cierta materia en cierto ciclo\n    global pericia\n    Materia=db(db.Materia.id==IDMat).select().first()\n    Ciclo=Materia.Ciclo\n    TempPericia=db((db.NivelPericia.IdPartida==session.partida)&(db.NivelPericia.IdAcademia==Materia.IdAcademia))\n    if Ciclo=="1":\n        pericia=100\n    elif Ciclo=="2":\n        total=len(db((db.Materia.Ciclo=="1")&(db.Materia.IdAcademia==Materia.IdAcademia)))\n        pericia=TempPericia/total\n    elif Ciclo=="3":\n        total=len(db((db.Materia.Ciclo=="1")&(db.Materia.Ciclo=="2")&(db.Materia.IdAcademia==Materia.IdAcademia)))\n        pericia=TempPericia/total\n    elif Ciclo=="3-4":\n        total=len(db((db.Materia.Ciclo=="1")&(db.Materia.Ciclo=="2")&(db.Materia.IdAcademia==Materia.IdAcademia)))\n        pericia=TempPericia/total\n    elif Ciclo=="4":\n        total=len(db((db.Materia.Ciclo=="1")&(db.Materia.Ciclo=="2")&(db.Materia.Ciclo=="3")&(db.Materia.IdAcademia==Materia.IdAcademia)))\n        pericia=TempPericia/total\n    return pericia\n\ndef GameOver():## Verifica si el juego se ha terminado\n    semestre=db((db.Semestre.IdPartida==session.partida)&(db.Semestre.Numero==session.semestre)).select().last()\n    if session.semestre:\n        TerceraOportuniad=db((db.Calificacion.IdSemestre==semestre.id)&(db.Calificacion.Oportunidad>=3)&(db.Calificacion.Calificacion<7))\n        if TerceraOportunidad:\n            print "por tercera"\n            return True\n    Partida=db(db.Partida.id==session.partida).select().first()\n    if session.semestre > 16:\n        print session.semestre\n        return True\n    elif Partida.BajasTemporales >=3:\n        print "por baja temporal"\n        return True\n    else:\n        return False\n\ndef BajaTemporal():## TODO BAJA TEMPORAL ESTA ES COPIA DE SET TIME\n    if not session.partida:\n        redirect(URL(\'default\',\'index\'))\n    else:\n        if not session.semestre:\n            db.Semestre.insert(IdPartida=session.partida,Numero=1)#si no existe semestre inicializa en 1\n        else:\n            semestre=db(db.Semestre.IdPartida==session.partida).select().last()#selecciona el objeto del ultimo semestre\n            db.Semestre.insert(IdPartida=session.partida,Numero=semestre.Numero+1)# Y agrega un semestre mas\n        CalculaDinero()\n        redirect(URL(\'perfil\'))\n    return locals()\n\ndef eliminar():\n    db.Calificacion.drop()\n    return True\n\nresponse._vars=response._caller(SetCalificacion)\n'
p7
sS'snapshot'
p8
(dp9
S'exception'
p10
(dp11
S'__hash__'
p12
S"<method-wrapper '__hash__' of exceptions.ValueError object>"
p13
sS'__setattr__'
p14
S"<method-wrapper '__setattr__' of exceptions.ValueError object>"
p15
sS'__reduce_ex__'
p16
S'<built-in method __reduce_ex__ of exceptions.ValueError object>'
p17
sS'__getslice__'
p18
S"<method-wrapper '__getslice__' of exceptions.ValueError object>"
p19
sS'__getitem__'
p20
S"<method-wrapper '__getitem__' of exceptions.ValueError object>"
p21
sS'__setstate__'
p22
S'<built-in method __setstate__ of exceptions.ValueError object>'
p23
sS'__reduce__'
p24
S'<built-in method __reduce__ of exceptions.ValueError object>'
p25
sS'__str__'
p26
S"<method-wrapper '__str__' of exceptions.ValueError object>"
p27
sS'__format__'
p28
S'<built-in method __format__ of exceptions.ValueError object>'
p29
sS'__getattribute__'
p30
S"<method-wrapper '__getattribute__' of exceptions.ValueError object>"
p31
sS'__class__'
p32
S"<type 'exceptions.ValueError'>"
p33
sS'__unicode__'
p34
S'<built-in method __unicode__ of exceptions.ValueError object>'
p35
sS'__delattr__'
p36
S"<method-wrapper '__delattr__' of exceptions.ValueError object>"
p37
sS'__subclasshook__'
p38
S'<built-in method __subclasshook__ of type object>'
p39
sS'__repr__'
p40
S"<method-wrapper '__repr__' of exceptions.ValueError object>"
p41
sS'args'
p42
S'("invalid literal for int() with base 10: \'Horas de estudio:78\'",)'
p43
sS'__dict__'
p44
S'{}'
p45
sS'__sizeof__'
p46
S'<built-in method __sizeof__ of exceptions.ValueError object>'
p47
sS'__doc__'
p48
S"'Inappropriate argument value (of correct type).'"
p49
sS'__init__'
p50
S"<method-wrapper '__init__' of exceptions.ValueError object>"
p51
sS'__new__'
p52
S'<built-in method __new__ of type object>'
p53
ssS'evalue'
p54
S"invalid literal for int() with base 10: 'Horas de estudio:78'"
p55
sS'request'
p56
cgluon.html
XML_unpickle
p57
(S's=T\x00\x00<div><table><tr><td style="font-weight:bold;vertical-align:top;">ajax</td><td style="vertical-align:top;">:</td><td><div>False</div></td></tr><tr><td style="font-weight:bold;vertical-align:top;">application</td><td style="vertical-align:top;">:</td><td><div>OririPro</div></td></tr><tr><td style="font-weight:bold;vertical-align:top;">args</td><td style="vertical-align:top;">:</td><td><div><table></table></div></td></tr><tr><td style="font-weight:bold;vertical-align:top;">cid</td><td style="vertical-align:top;">:</td><td><div>None</div></td></tr><tr><td style="font-weight:bold;vertical-align:top;">client</td><td style="vertical-align:top;">:</td><td><div>127.0.0.1</div></td></tr><tr><td style="font-weight:bold;vertical-align:top;">controller</td><td style="vertical-align:top;">:</td><td><div>Juego</div></td></tr><tr><td style="font-weight:bold;vertical-align:top;">cookies</td><td style="vertical-align:top;">:</td><td><div><table><tr><td style="font-weight:bold;vertical-align:top;">session_id_admin</td><td style="vertical-align:top;">:</td><td><div>127.0.0.1-2cbbe2f2-1057-4c66-8d92-44e928b17310<table><tr><td style="font-weight:bold;vertical-align:top;">comment</td><td style="vertical-align:top;">:</td><td><div></div></td></tr><tr><td style="font-weight:bold;vertical-align:top;">domain</td><td style="vertical-align:top;">:</td><td><div></div></td></tr><tr><td style="font-weight:bold;vertical-align:top;">expires</td><td style="vertical-align:top;">:</td><td><div></div></td></tr><tr><td style="font-weight:bold;vertical-align:top;">httponly</td><td style="vertical-align:top;">:</td><td><div></div></td></tr><tr><td style="font-weight:bold;vertical-align:top;">max-age</td><td style="vertical-align:top;">:</td><td><div></div></td></tr><tr><td style="font-weight:bold;vertical-align:top;">path</td><td style="vertical-align:top;">:</td><td><div></div></td></tr><tr><td style="font-weight:bold;vertical-align:top;">secure</td><td style="vertical-align:top;">:</td><td><div></div></td></tr><tr><td style="font-weight:bold;vertical-align:top;">version</td><td style="vertical-align:top;">:</td><td><div></div></td></tr></table></div></td></tr><tr><td style="font-weight:bold;vertical-align:top;">session_id_oriripro</td><td style="vertical-align:top;">:</td><td><div>127.0.0.1-c657d81b-5ad4-4826-b2b7-859c04d939f7<table><tr><td style="font-weight:bold;vertical-align:top;">comment</td><td style="vertical-align:top;">:</td><td><div></div></td></tr><tr><td style="font-weight:bold;vertical-align:top;">domain</td><td style="vertical-align:top;">:</td><td><div></div></td></tr><tr><td style="font-weight:bold;vertical-align:top;">expires</td><td style="vertical-align:top;">:</td><td><div></div></td></tr><tr><td style="font-weight:bold;vertical-align:top;">httponly</td><td style="vertical-align:top;">:</td><td><div></div></td></tr><tr><td style="font-weight:bold;vertical-align:top;">max-age</td><td style="vertical-align:top;">:</td><td><div></div></td></tr><tr><td style="font-weight:bold;vertical-align:top;">path</td><td style="vertical-align:top;">:</td><td><div></div></td></tr><tr><td style="font-weight:bold;vertical-align:top;">secure</td><td style="vertical-align:top;">:</td><td><div></div></td></tr><tr><td style="font-weight:bold;vertical-align:top;">version</td><td style="vertical-align:top;">:</td><td><div></div></td></tr></table></div></td></tr></table></div></td></tr><tr><td style="font-weight:bold;vertical-align:top;">env</td><td style="vertical-align:top;">:</td><td><div><table><tr><td style="font-weight:bold;vertical-align:top;">HTTP_ACCEPT</td><td style="vertical-align:top;">:</td><td><div>text/html,application/xhtml+xml,application/xml;q=0.9,image/webp,*/*;q=0.8</div></td></tr><tr><td style="font-weight:bold;vertical-align:top;">HTTP_ACCEPT_ENCODING</td><td style="vertical-align:top;">:</td><td><div>gzip,deflate,sdch</div></td></tr><tr><td style="font-weight:bold;vertical-align:top;">HTTP_ACCEPT_LANGUAGE</td><td style="vertical-align:top;">:</td><td><div>es-419,es;q=0.8</div></td></tr><tr><td style="font-weight:bold;vertical-align:top;">HTTP_CONNECTION</td><td style="vertical-align:top;">:</td><td><div>keep-alive</div></td></tr><tr><td style="font-weight:bold;vertical-align:top;">HTTP_COOKIE</td><td style="vertical-align:top;">:</td><td><div>session_id_admin=127.0.0.1-2cbbe2f2-1057-4c66-8d92-44e928b17310; session_id_oriripro=127.0.0.1-c657d81b-5ad4-4826-b2b7-859c04d939f7</div></td></tr><tr><td style="font-weight:bold;vertical-align:top;">HTTP_HOST</td><td style="vertical-align:top;">:</td><td><div>127.0.0.1:8000</div></td></tr><tr><td style="font-weight:bold;vertical-align:top;">HTTP_USER_AGENT</td><td style="vertical-align:top;">:</td><td><div>Mozilla/5.0 (X11; Linux i686) AppleWebKit/537.36 (KHTML, like Gecko) Chrome/38.0.2125.122 Safari/537.36</div></td></tr><tr><td style="font-weight:bold;vertical-align:top;">PATH_INFO</td><td style="vertical-align:top;">:</td><td><div>/Juego/SetCalificacion</div></td></tr><tr><td style="font-weight:bold;vertical-align:top;">QUERY_STRING</td><td style="vertical-align:top;">:</td><td><div>id=464&amp;tiempo=plus10&amp;time=Horas+de+estudio%3A78</div></td></tr><tr><td style="font-weight:bold;vertical-align:top;">REMOTE_ADDR</td><td style="vertical-align:top;">:</td><td><div>127.0.0.1</div></td></tr><tr><td style="font-weight:bold;vertical-align:top;">REMOTE_PORT</td><td style="vertical-align:top;">:</td><td><div>49627</div></td></tr><tr><td style="font-weight:bold;vertical-align:top;">REQUEST_METHOD</td><td style="vertical-align:top;">:</td><td><div>GET</div></td></tr><tr><td style="font-weight:bold;vertical-align:top;">SCRIPT_NAME</td><td style="vertical-align:top;">:</td><td><div></div></td></tr><tr><td style="font-weight:bold;vertical-align:top;">SERVER_NAME</td><td style="vertical-align:top;">:</td><td><div>eddiel-Presario-CQ42-Notebook-PC</div></td></tr><tr><td style="font-weight:bold;vertical-align:top;">SERVER_PORT</td><td style="vertical-align:top;">:</td><td><div>8000</div></td></tr><tr><td style="font-weight:bold;vertical-align:top;">SERVER_PROTOCOL</td><td style="vertical-align:top;">:</td><td><div>HTTP/1.1</div></td></tr><tr><td style="font-weight:bold;vertical-align:top;">SERVER_SOFTWARE</td><td style="vertical-align:top;">:</td><td><div>Rocket 1.2.6</div></td></tr><tr><td style="font-weight:bold;vertical-align:top;">app_folders</td><td style="vertical-align:top;">:</td><td><div>set([&#x27;/home/eddiel/ProyectoTerminal/proyecto_terminal/applications/OririPro/&#x27;])</div></td></tr><tr><td style="font-weight:bold;vertical-align:top;">applications_parent</td><td style="vertical-align:top;">:</td><td><div>/home/eddiel/ProyectoTerminal/proyecto_terminal</div></td></tr><tr><td style="font-weight:bold;vertical-align:top;">cmd_args</td><td style="vertical-align:top;">:</td><td><div><table></table></div></td></tr><tr><td style="font-weight:bold;vertical-align:top;">cmd_options</td><td style="vertical-align:top;">:</td><td><div>&lt;Values at 0xb699b4cc: {&#x27;verbose&#x27;: False, &#x27;ip&#x27;: &#x27;127.0.0.1&#x27;, &#x27;debuglevel&#x27;: 30, &#x27;with_scheduler&#x27;: False, &#x27;ips&#x27;: [&#x27;127.0.1.1&#x27;], &#x27;shutdown_timeout&#x27;: 5, &#x27;taskbar&#x27;: False, &#x27;with_coverage&#x27;: False, &#x27;port&#x27;: 8000, &#x27;maxthreads&#x27;: None, &#x27;softcron&#x27;: False, &#x27;server_name&#x27;: &#x27;eddiel-Presario-CQ42-Notebook-PC&#x27;, &#x27;bpython&#x27;: False, &#x27;nogui&#x27;: False, &#x27;pid_filename&#x27;: &#x27;httpserver.pid&#x27;, &#x27;extcron&#x27;: False, &#x27;runcron&#x27;: False, &#x27;run_system_tests&#x27;: False, &#x27;test&#x27;: None, &#x27;folder&#x27;: &#x27;/home/eddiel/ProyectoTerminal/proyecto_terminal&#x27;, &#x27;config&#x27;: &#x27;&#x27;, &#x27;minthreads&#x27;: None, &#x27;shell&#x27;: None, &#x27;run&#x27;: &#x27;&#x27;, &#x27;log_filename&#x27;: &#x27;httpserver.log&#x27;, &#x27;profiler_dir&#x27;: None, &#x27;args&#x27;: [&#x27;&#x27;], &#x27;socket_timeout&#x27;: 5, &#x27;ssl_ca_certificate&#x27;: None, &#x27;scheduler&#x27;: None, &#x27;interfaces&#x27;: None, &#x27;ssl_private_key&#x27;: &#x27;&#x27;, &#x27;scheduler_groups&#x27;: None, &#x27;password&#x27;: &#x27;&lt;ask&gt;&#x27;, &#x27;request_queue_size&#x27;: 5, &#x27;ssl_certificate&#x27;: &#x27;&#x27;, &#x27;cronjob&#x27;: False, &#x27;numthreads&#x27;: None, &#x27;quiet&#x27;: False, &#x27;import_models&#x27;: False, &#x27;timeout&#x27;: 10, &#x27;plain&#x27;: False, &#x27;nobanner&#x27;: False}&gt;</div></td></tr><tr><td style="font-weight:bold;vertical-align:top;">db_sessions</td><td style="vertical-align:top;">:</td><td><div>set([])</div></td></tr><tr><td style="font-weight:bold;vertical-align:top;">debugging</td><td style="vertical-align:top;">:</td><td><div>False</div></td></tr><tr><td style="font-weight:bold;vertical-align:top;">gluon_parent</td><td style="vertical-align:top;">:</td><td><div>/home/eddiel/ProyectoTerminal/proyecto_terminal</div></td></tr><tr><td style="font-weight:bold;vertical-align:top;">http_accept</td><td style="vertical-align:top;">:</td><td><div>text/html,application/xhtml+xml,application/xml;q=0.9,image/webp,*/*;q=0.8</div></td></tr><tr><td style="font-weight:bold;vertical-align:top;">http_accept_encoding</td><td style="vertical-align:top;">:</td><td><div>gzip,deflate,sdch</div></td></tr><tr><td style="font-weight:bold;vertical-align:top;">http_accept_language</td><td style="vertical-align:top;">:</td><td><div>es-419,es;q=0.8</div></td></tr><tr><td style="font-weight:bold;vertical-align:top;">http_connection</td><td style="vertical-align:top;">:</td><td><div>keep-alive</div></td></tr><tr><td style="font-weight:bold;vertical-align:top;">http_cookie</td><td style="vertical-align:top;">:</td><td><div>session_id_admin=127.0.0.1-2cbbe2f2-1057-4c66-8d92-44e928b17310; session_id_oriripro=127.0.0.1-c657d81b-5ad4-4826-b2b7-859c04d939f7</div></td></tr><tr><td style="font-weight:bold;vertical-align:top;">http_host</td><td style="vertical-align:top;">:</td><td><div>127.0.0.1:8000</div></td></tr><tr><td style="font-weight:bold;vertical-align:top;">http_user_agent</td><td style="vertical-align:top;">:</td><td><div>Mozilla/5.0 (X11; Linux i686) AppleWebKit/537.36 (KHTML, like Gecko) Chrome/38.0.2125.122 Safari/537.36</div></td></tr><tr><td style="font-weight:bold;vertical-align:top;">is_jython</td><td style="vertical-align:top;">:</td><td><div>False</div></td></tr><tr><td style="font-weight:bold;vertical-align:top;">is_pypy</td><td style="vertical-align:top;">:</td><td><div>False</div></td></tr><tr><td style="font-weight:bold;vertical-align:top;">is_source</td><td style="vertical-align:top;">:</td><td><div>True</div></td></tr><tr><td style="font-weight:bold;vertical-align:top;">local_hosts</td><td style="vertical-align:top;">:</td><td><div><table><tr><td><div>eddiel-Presario-CQ42-Notebook-PC</div></td></tr><tr><td><div>::1</div></td></tr><tr><td><div>127.0.1.1</div></td></tr><tr><td><div>::ffff:127.0.0.1</div></td></tr><tr><td><div>127.0.0.1</div></td></tr></table></div></td></tr><tr><td style="font-weight:bold;vertical-align:top;">path_info</td><td style="vertical-align:top;">:</td><td><div>/Juego/SetCalificacion</div></td></tr><tr><td style="font-weight:bold;vertical-align:top;">query_string</td><td style="vertical-align:top;">:</td><td><div>id=464&amp;tiempo=plus10&amp;time=Horas+de+estudio%3A78</div></td></tr><tr><td style="font-weight:bold;vertical-align:top;">remote_addr</td><td style="vertical-align:top;">:</td><td><div>127.0.0.1</div></td></tr><tr><td style="font-weight:bold;vertical-align:top;">remote_port</td><td style="vertical-align:top;">:</td><td><div>49627</div></td></tr><tr><td style="font-weight:bold;vertical-align:top;">request_method</td><td style="vertical-align:top;">:</td><td><div>GET</div></td></tr><tr><td style="font-weight:bold;vertical-align:top;">request_uri</td><td style="vertical-align:top;">:</td><td><div>/OririPro/Juego/SetCalificacion?id=464&amp;tiempo=plus10&amp;time=Horas+de+estudio%3A78</div></td></tr><tr><td style="font-weight:bold;vertical-align:top;">script_name</td><td style="vertical-align:top;">:</td><td><div></div></td></tr><tr><td style="font-weight:bold;vertical-align:top;">server_name</td><td style="vertical-align:top;">:</td><td><div>eddiel-Presario-CQ42-Notebook-PC</div></td></tr><tr><td style="font-weight:bold;vertical-align:top;">server_port</td><td style="vertical-align:top;">:</td><td><div>8000</div></td></tr><tr><td style="font-weight:bold;vertical-align:top;">server_protocol</td><td style="vertical-align:top;">:</td><td><div>HTTP/1.1</div></td></tr><tr><td style="font-weight:bold;vertical-align:top;">server_software</td><td style="vertical-align:top;">:</td><td><div>Rocket 1.2.6</div></td></tr><tr><td style="font-weight:bold;vertical-align:top;">web2py_original_uri</td><td style="vertical-align:top;">:</td><td><div>/Juego/SetCalificacion?id=464&amp;tiempo=plus10&amp;time=Horas+de+estudio%3A78</div></td></tr><tr><td style="font-weight:bold;vertical-align:top;">web2py_path</td><td style="vertical-align:top;">:</td><td><div>/home/eddiel/ProyectoTerminal/proyecto_terminal</div></td></tr><tr><td style="font-weight:bold;vertical-align:top;">web2py_version</td><td style="vertical-align:top;">:</td><td><div>2.9.5-stable+timestamp.2014.03.16.02.35.39</div></td></tr><tr><td style="font-weight:bold;vertical-align:top;">wsgi.errors</td><td style="vertical-align:top;">:</td><td><div>&lt;open file &#x27;&lt;stderr&gt;&#x27;, mode &#x27;w&#x27; at 0xb75020d0&gt;</div></td></tr><tr><td style="font-weight:bold;vertical-align:top;">wsgi.file_wrapper</td><td style="vertical-align:top;">:</td><td><div>&lt;class wsgiref.util.FileWrapper at 0xb68f086c&gt;</div></td></tr><tr><td style="font-weight:bold;vertical-align:top;">wsgi.input</td><td style="vertical-align:top;">:</td><td><div>&lt;socket._fileobject object at 0xae58fb6c&gt;</div></td></tr><tr><td style="font-weight:bold;vertical-align:top;">wsgi.multiprocess</td><td style="vertical-align:top;">:</td><td><div>False</div></td></tr><tr><td style="font-weight:bold;vertical-align:top;">wsgi.multithread</td><td style="vertical-align:top;">:</td><td><div>True</div></td></tr><tr><td style="font-weight:bold;vertical-align:top;">wsgi.run_once</td><td style="vertical-align:top;">:</td><td><div>False</div></td></tr><tr><td style="font-weight:bold;vertical-align:top;">wsgi.url_scheme</td><td style="vertical-align:top;">:</td><td><div>http</div></td></tr><tr><td style="font-weight:bold;vertical-align:top;">wsgi.version</td><td style="vertical-align:top;">:</td><td><div><table><tr><td><div>1</div></td></tr><tr><td><div>0</div></td></tr></table></div></td></tr><tr><td style="font-weight:bold;vertical-align:top;">wsgi_errors</td><td style="vertical-align:top;">:</td><td><div>&lt;open file &#x27;&lt;stderr&gt;&#x27;, mode &#x27;w&#x27; at 0xb75020d0&gt;</div></td></tr><tr><td style="font-weight:bold;vertical-align:top;">wsgi_file_wrapper</td><td style="vertical-align:top;">:</td><td><div>&lt;class wsgiref.util.FileWrapper at 0xb68f086c&gt;</div></td></tr><tr><td style="font-weight:bold;vertical-align:top;">wsgi_input</td><td style="vertical-align:top;">:</td><td><div>&lt;socket._fileobject object at 0xae58fb6c&gt;</div></td></tr><tr><td style="font-weight:bold;vertical-align:top;">wsgi_multiprocess</td><td style="vertical-align:top;">:</td><td><div>False</div></td></tr><tr><td style="font-weight:bold;vertical-align:top;">wsgi_multithread</td><td style="vertical-align:top;">:</td><td><div>True</div></td></tr><tr><td style="font-weight:bold;vertical-align:top;">wsgi_run_once</td><td style="vertical-align:top;">:</td><td><div>False</div></td></tr><tr><td style="font-weight:bold;vertical-align:top;">wsgi_url_scheme</td><td style="vertical-align:top;">:</td><td><div>http</div></td></tr><tr><td style="font-weight:bold;vertical-align:top;">wsgi_version</td><td style="vertical-align:top;">:</td><td><div><table><tr><td><div>1</div></td></tr><tr><td><div>0</div></td></tr></table></div></td></tr></table></div></td></tr><tr><td style="font-weight:bold;vertical-align:top;">extension</td><td style="vertical-align:top;">:</td><td><div>html</div></td></tr><tr><td style="font-weight:bold;vertical-align:top;">folder</td><td style="vertical-align:top;">:</td><td><div>/home/eddiel/ProyectoTerminal/proyecto_terminal/applications/OririPro/</div></td></tr><tr><td style="font-weight:bold;vertical-align:top;">function</td><td style="vertical-align:top;">:</td><td><div>SetCalificacion</div></td></tr><tr><td style="font-weight:bold;vertical-align:top;">global_settings</td><td style="vertical-align:top;">:</td><td><div><table><tr><td style="font-weight:bold;vertical-align:top;">app_folders</td><td style="vertical-align:top;">:</td><td><div>set([&#x27;/home/eddiel/ProyectoTerminal/proyecto_terminal/applications/OririPro/&#x27;])</div></td></tr><tr><td style="font-weight:bold;vertical-align:top;">applications_parent</td><td style="vertical-align:top;">:</td><td><div>/home/eddiel/ProyectoTerminal/proyecto_terminal</div></td></tr><tr><td style="font-weight:bold;vertical-align:top;">cmd_args</td><td style="vertical-align:top;">:</td><td><div><table></table></div></td></tr><tr><td style="font-weight:bold;vertical-align:top;">cmd_options</td><td style="vertical-align:top;">:</td><td><div>&lt;Values at 0xb699b4cc: {&#x27;verbose&#x27;: False, &#x27;ip&#x27;: &#x27;127.0.0.1&#x27;, &#x27;debuglevel&#x27;: 30, &#x27;with_scheduler&#x27;: False, &#x27;ips&#x27;: [&#x27;127.0.1.1&#x27;], &#x27;shutdown_timeout&#x27;: 5, &#x27;taskbar&#x27;: False, &#x27;with_coverage&#x27;: False, &#x27;port&#x27;: 8000, &#x27;maxthreads&#x27;: None, &#x27;softcron&#x27;: False, &#x27;server_name&#x27;: &#x27;eddiel-Presario-CQ42-Notebook-PC&#x27;, &#x27;bpython&#x27;: False, &#x27;nogui&#x27;: False, &#x27;pid_filename&#x27;: &#x27;httpserver.pid&#x27;, &#x27;extcron&#x27;: False, &#x27;runcron&#x27;: False, &#x27;run_system_tests&#x27;: False, &#x27;test&#x27;: None, &#x27;folder&#x27;: &#x27;/home/eddiel/ProyectoTerminal/proyecto_terminal&#x27;, &#x27;config&#x27;: &#x27;&#x27;, &#x27;minthreads&#x27;: None, &#x27;shell&#x27;: None, &#x27;run&#x27;: &#x27;&#x27;, &#x27;log_filename&#x27;: &#x27;httpserver.log&#x27;, &#x27;profiler_dir&#x27;: None, &#x27;args&#x27;: [&#x27;&#x27;], &#x27;socket_timeout&#x27;: 5, &#x27;ssl_ca_certificate&#x27;: None, &#x27;scheduler&#x27;: None, &#x27;interfaces&#x27;: None, &#x27;ssl_private_key&#x27;: &#x27;&#x27;, &#x27;scheduler_groups&#x27;: None, &#x27;password&#x27;: &#x27;&lt;ask&gt;&#x27;, &#x27;request_queue_size&#x27;: 5, &#x27;ssl_certificate&#x27;: &#x27;&#x27;, &#x27;cronjob&#x27;: False, &#x27;numthreads&#x27;: None, &#x27;quiet&#x27;: False, &#x27;import_models&#x27;: False, &#x27;timeout&#x27;: 10, &#x27;plain&#x27;: False, &#x27;nobanner&#x27;: False}&gt;</div></td></tr><tr><td style="font-weight:bold;vertical-align:top;">db_sessions</td><td style="vertical-align:top;">:</td><td><div>set([])</div></td></tr><tr><td style="font-weight:bold;vertical-align:top;">debugging</td><td style="vertical-align:top;">:</td><td><div>False</div></td></tr><tr><td style="font-weight:bold;vertical-align:top;">gluon_parent</td><td style="vertical-align:top;">:</td><td><div>/home/eddiel/ProyectoTerminal/proyecto_terminal</div></td></tr><tr><td style="font-weight:bold;vertical-align:top;">is_jython</td><td style="vertical-align:top;">:</td><td><div>False</div></td></tr><tr><td style="font-weight:bold;vertical-align:top;">is_pypy</td><td style="vertical-align:top;">:</td><td><div>False</div></td></tr><tr><td style="font-weight:bold;vertical-align:top;">is_source</td><td style="vertical-align:top;">:</td><td><div>True</div></td></tr><tr><td style="font-weight:bold;vertical-align:top;">local_hosts</td><td style="vertical-align:top;">:</td><td><div><table><tr><td><div>eddiel-Presario-CQ42-Notebook-PC</div></td></tr><tr><td><div>::1</div></td></tr><tr><td><div>127.0.1.1</div></td></tr><tr><td><div>::ffff:127.0.0.1</div></td></tr><tr><td><div>127.0.0.1</div></td></tr></table></div></td></tr><tr><td style="font-weight:bold;vertical-align:top;">web2py_version</td><td style="vertical-align:top;">:</td><td><div>2.9.5-stable+timestamp.2014.03.16.02.35.39</div></td></tr></table></div></td></tr><tr><td style="font-weight:bold;vertical-align:top;">is_https</td><td style="vertical-align:top;">:</td><td><div>False</div></td></tr><tr><td style="font-weight:bold;vertical-align:top;">is_local</td><td style="vertical-align:top;">:</td><td><div>True</div></td></tr><tr><td style="font-weight:bold;vertical-align:top;">is_restful</td><td style="vertical-align:top;">:</td><td><div>False</div></td></tr><tr><td style="font-weight:bold;vertical-align:top;">now</td><td style="vertical-align:top;">:</td><td><div>datetime.datetime(2014, 11, 21, 8, 37, 22, 472108)</div></td></tr><tr><td style="font-weight:bold;vertical-align:top;">url</td><td style="vertical-align:top;">:</td><td><div>/Juego/SetCalificacion</div></td></tr><tr><td style="font-weight:bold;vertical-align:top;">utcnow</td><td style="vertical-align:top;">:</td><td><div>datetime.datetime(2014, 11, 21, 14, 37, 22, 472138)</div></td></tr><tr><td style="font-weight:bold;vertical-align:top;">uuid</td><td style="vertical-align:top;">:</td><td><div>OririPro/127.0.0.1.2014-11-21.08-37-22.ad0c100e-b60b-4150-9d5a-af146a9041f0</div></td></tr><tr><td style="font-weight:bold;vertical-align:top;">wsgi</td><td style="vertical-align:top;">:</td><td><div>&lt;gluon.main.LazyWSGI object at 0xae8de94c&gt;</div></td></tr></table></div>'
tRp58
sS'frames'
p59
(lp60
(dp61
S'file'
p62
S'/home/eddiel/ProyectoTerminal/proyecto_terminal/gluon/restricted.py'
p63
sS'dump'
p64
(dp65
S'environment'
p66
S"{'A': <class 'gluon.html.A'>, 'ANY_OF': <class 'gluon.validators.ANY_OF'>, 'Auth': <class 'gluon.tools.Auth'>, 'B': <class 'gluon.html.B'>, 'BEAUTIFY': <class 'gluon.html.BEAUTIFY'>, 'BODY': <class 'gluon.html.BODY'>, 'BR': <class 'gluon.html.BR'>, 'BUTTON': <class 'gluon.html.BUTTON'>, 'BajaTemporal': <function BajaTemporal>, 'CAT': <class 'gluon.html.CAT'>, ...}"
p67
sS'ccode'
p68
S'<code object <module> at 0xae87c2f0, file "/home...lications/OririPro/controllers/Juego.py", line 1>'
p69
ssS'lnum'
p70
I220
sS'lines'
p71
(dp72
I224
S'        # do not encapsulate (obfuscate) the original RestrictedError'
p73
sI215
S'    try:'
p74
sI216
S'        if isinstance(code, types.CodeType):'
p75
sI217
S'            ccode = code'
p76
sI218
S'        else:'
p77
sI219
S'            ccode = compile2(code, layer)'
p78
sI220
S'        exec ccode in environment'
p79
sI221
S'    except HTTP:'
p80
sI222
S'        raise'
p81
sI223
S'    except RestrictedError:'
p82
ssS'call'
p83
S"(code='pericia=0\\nTerceraOportunidad=0\\nsession.ma=[]\\ncon...response._vars=response._caller(SetCalificacion)\\n', environment={'A': <class 'gluon.html.A'>, 'ANY_OF': <class 'gluon.validators.ANY_OF'>, 'Auth': <class 'gluon.tools.Auth'>, 'B': <class 'gluon.html.B'>, 'BEAUTIFY': <class 'gluon.html.BEAUTIFY'>, 'BODY': <class 'gluon.html.BODY'>, 'BR': <class 'gluon.html.BR'>, 'BUTTON': <class 'gluon.html.BUTTON'>, 'BajaTemporal': <function BajaTemporal>, 'CAT': <class 'gluon.html.CAT'>, ...}, layer='/home/eddiel/ProyectoTerminal/proyecto_terminal/applications/OririPro/controllers/Juego.py')"
p84
sS'func'
p85
S'restricted'
p86
sa(dp87
g62
S'/home/eddiel/ProyectoTerminal/proyecto_terminal/applications/OririPro/controllers/Juego.py'
p88
sg64
(dp89
sg70
I320
sg71
(dp90
I309
S'        else:'
p91
sI310
S'            semestre=db(db.Semestre.IdPartida==session.partida).select().last()#selecciona el objeto del ultimo semestre'
p92
sI311
S'            db.Semestre.insert(IdPartida=session.partida,Numero=semestre.Numero+1)# Y agrega un semestre mas'
p93
sI312
S'        CalculaDinero()'
p94
sI313
S"        redirect(URL('perfil'))"
p95
sI314
S'    return locals()'
p96
sI315
S''
sI316
S'def eliminar():'
p97
sI317
S'    db.Calificacion.drop()'
p98
sI318
S'    return True'
p99
ssg83
S'()'
p100
sg85
S'<module>'
p101
sa(dp102
g62
S'/home/eddiel/ProyectoTerminal/proyecto_terminal/gluon/globals.py'
p103
sg64
(dp104
S'self'
p105
S'undefined'
p106
sS'f'
S'<function SetCalificacion>'
p107
ssg70
I385
sg71
(dp108
I384
S'        self._vars = None'
p109
sI385
S'        self._caller = lambda f: f()'
p110
sI386
S'        self._view_environment = None'
p111
sI387
S'        self._custom_commit = None'
p112
sI388
S'        self._custom_rollback = None'
p113
sI389
S''
sI380
S'        self.menu = []             # used by the default view layout'
p114
sI381
S'        self.files = []            # used by web2py_ajax.html'
p115
sI382
S'        self.generic_patterns = []  # patterns to allow generic views'
p116
sI383
S"        self.delimiters = ('{{', '}}')"
p117
ssg83
S'(f=<function SetCalificacion>)'
p118
sg85
S'<lambda>'
p119
sa(dp120
g62
S'/home/eddiel/ProyectoTerminal/proyecto_terminal/applications/OririPro/controllers/Juego.py'
p121
sg64
(dp122
S'var'
p123
S"<Storage {'tiempo': 'plus10', 'id': '464', 'time': 'Horas de estudio:78'}>"
p124
sS'builtinint'
p125
S"<type 'int'>"
p126
sS'var.time'
p127
S"'Horas de estudio:78'"
p128
sS'time'
p129
g106
ssg70
I168
sg71
(dp130
I163
S''
sI164
S'def SetCalificacion():#regresa la calificacion dependiente de NivelExigenciaDoc,DifMateria,Varianza,Pericia,Tiempo,Creditos'
p131
sI165
S'    #time tiempo total tiempo tiempo de 1 materia'
p132
sI166
S'    var=request.get_vars'
p133
sI167
S'    idcalf=int(var.id)'
p134
sI168
S'    time=int(var.time)#Tiempo Total de estudio TODO: MENOR QUE 0 return message'
p135
sI169
S'    tiempo=var.tiempo'
p136
sI170
S'    #calf=calf-1'
p137
sI171
S'    dbCal=db(db.Calificacion.id==idcalf).select().first()'
p138
sI172
S'    partida=db(db.Partida.id==session.partida).select().first()'
p139
ssg83
S'()'
p140
sg85
S'SetCalificacion'
p141
sasS'pyver'
p142
S'Python 2.7.6: /usr/bin/python (prefix: /usr)'
p143
sS'session'
p144
g57
(S's\x81\r\x00\x00<div><table><tr><td style="font-weight:bold;vertical-align:top;">auth</td><td style="vertical-align:top;">:</td><td><div><table><tr><td style="font-weight:bold;vertical-align:top;">expiration</td><td style="vertical-align:top;">:</td><td><div>3600</div></td></tr><tr><td style="font-weight:bold;vertical-align:top;">hmac_key</td><td style="vertical-align:top;">:</td><td><div>ca738b7d-dc89-4644-bc77-4bc4e0c56b40</div></td></tr><tr><td style="font-weight:bold;vertical-align:top;">last_visit</td><td style="vertical-align:top;">:</td><td><div>datetime.datetime(2014, 11, 21, 8, 36, 1, 669779)</div></td></tr><tr><td style="font-weight:bold;vertical-align:top;">remember</td><td style="vertical-align:top;">:</td><td><div>False</div></td></tr><tr><td style="font-weight:bold;vertical-align:top;">user</td><td style="vertical-align:top;">:</td><td><div><table><tr><td style="font-weight:bold;vertical-align:top;">email</td><td style="vertical-align:top;">:</td><td><div>eddycerver@hotmail.com</div></td></tr><tr><td style="font-weight:bold;vertical-align:top;">first_name</td><td style="vertical-align:top;">:</td><td><div>Eddiel</div></td></tr><tr><td style="font-weight:bold;vertical-align:top;">id</td><td style="vertical-align:top;">:</td><td><div>1L</div></td></tr><tr><td style="font-weight:bold;vertical-align:top;">last_name</td><td style="vertical-align:top;">:</td><td><div>Cervera</div></td></tr><tr><td style="font-weight:bold;vertical-align:top;">registration_id</td><td style="vertical-align:top;">:</td><td><div></div></td></tr><tr><td style="font-weight:bold;vertical-align:top;">registration_key</td><td style="vertical-align:top;">:</td><td><div></div></td></tr><tr><td style="font-weight:bold;vertical-align:top;">reset_password_key</td><td style="vertical-align:top;">:</td><td><div></div></td></tr></table></div></td></tr><tr><td style="font-weight:bold;vertical-align:top;">user_groups</td><td style="vertical-align:top;">:</td><td><div><table><tr><td style="font-weight:bold;vertical-align:top;">1</td><td style="vertical-align:top;">:</td><td><div>user_1</div></td></tr></table></div></td></tr></table></div></td></tr><tr><td style="font-weight:bold;vertical-align:top;">estado</td><td style="vertical-align:top;">:</td><td><div>1</div></td></tr><tr><td style="font-weight:bold;vertical-align:top;">familia</td><td style="vertical-align:top;">:</td><td><div>14</div></td></tr><tr><td style="font-weight:bold;vertical-align:top;">flash</td><td style="vertical-align:top;">:</td><td><div>None</div></td></tr><tr><td style="font-weight:bold;vertical-align:top;">ma</td><td style="vertical-align:top;">:</td><td><div><table></table></div></td></tr><tr><td style="font-weight:bold;vertical-align:top;">parcial</td><td style="vertical-align:top;">:</td><td><div>2</div></td></tr><tr><td style="font-weight:bold;vertical-align:top;">partida</td><td style="vertical-align:top;">:</td><td><div>64L</div></td></tr><tr><td style="font-weight:bold;vertical-align:top;">semestre</td><td style="vertical-align:top;">:</td><td><div>1L</div></td></tr><tr><td style="font-weight:bold;vertical-align:top;">social</td><td style="vertical-align:top;">:</td><td><div>17</div></td></tr><tr><td style="font-weight:bold;vertical-align:top;">time</td><td style="vertical-align:top;">:</td><td><div>78</div></td></tr><tr><td style="font-weight:bold;vertical-align:top;">trabajo</td><td style="vertical-align:top;">:</td><td><div>22</div></td></tr></table></div>'
tRp145
sS'etype'
p146
S"<type 'exceptions.ValueError'>"
p147
sS'date'
p148
S'Fri Nov 21 08:37:22 2014'
p149
sS'response'
p150
g57
(S'sZ1\x00\x00<div><table><tr><td style="font-weight:bold;vertical-align:top;">body</td><td style="vertical-align:top;">:</td><td><div>&lt;cStringIO.StringO object at 0xae8de980&gt;</div></td></tr><tr><td style="font-weight:bold;vertical-align:top;">cookies</td><td style="vertical-align:top;">:</td><td><div><table><tr><td style="font-weight:bold;vertical-align:top;">session_id_oriripro</td><td style="vertical-align:top;">:</td><td><div>127.0.0.1-c657d81b-5ad4-4826-b2b7-859c04d939f7<table><tr><td style="font-weight:bold;vertical-align:top;">comment</td><td style="vertical-align:top;">:</td><td><div></div></td></tr><tr><td style="font-weight:bold;vertical-align:top;">domain</td><td style="vertical-align:top;">:</td><td><div></div></td></tr><tr><td style="font-weight:bold;vertical-align:top;">expires</td><td style="vertical-align:top;">:</td><td><div></div></td></tr><tr><td style="font-weight:bold;vertical-align:top;">httponly</td><td style="vertical-align:top;">:</td><td><div></div></td></tr><tr><td style="font-weight:bold;vertical-align:top;">max-age</td><td style="vertical-align:top;">:</td><td><div></div></td></tr><tr><td style="font-weight:bold;vertical-align:top;">path</td><td style="vertical-align:top;">:</td><td><div>/</div></td></tr><tr><td style="font-weight:bold;vertical-align:top;">secure</td><td style="vertical-align:top;">:</td><td><div></div></td></tr><tr><td style="font-weight:bold;vertical-align:top;">version</td><td style="vertical-align:top;">:</td><td><div></div></td></tr></table></div></td></tr></table></div></td></tr><tr><td style="font-weight:bold;vertical-align:top;">delimiters</td><td style="vertical-align:top;">:</td><td><div><table><tr><td><div>{{</div></td></tr><tr><td><div>}}</div></td></tr></table></div></td></tr><tr><td style="font-weight:bold;vertical-align:top;">files</td><td style="vertical-align:top;">:</td><td><div><table></table></div></td></tr><tr><td style="font-weight:bold;vertical-align:top;">flash</td><td style="vertical-align:top;">:</td><td><div></div></td></tr><tr><td style="font-weight:bold;vertical-align:top;">generic_patterns</td><td style="vertical-align:top;">:</td><td><div><table><tr><td><div>*</div></td></tr></table></div></td></tr><tr><td style="font-weight:bold;vertical-align:top;">google_analytics_id</td><td style="vertical-align:top;">:</td><td><div>None</div></td></tr><tr><td style="font-weight:bold;vertical-align:top;">headers</td><td style="vertical-align:top;">:</td><td><div><table><tr><td style="font-weight:bold;vertical-align:top;">X-Powered-By</td><td style="vertical-align:top;">:</td><td><div>web2py</div></td></tr></table></div></td></tr><tr><td style="font-weight:bold;vertical-align:top;">logo</td><td style="vertical-align:top;">:</td><td><div><a class="brand" href="http://www.web2py.com/"><b>web<span>2</span>py</b>&trade;&nbsp;</a></div></td></tr><tr><td style="font-weight:bold;vertical-align:top;">menu</td><td style="vertical-align:top;">:</td><td><div><table><tr><td><div><table><tr><td><div>Inicio</div></td></tr><tr><td><div>False</div></td></tr><tr><td><div>/</div></td></tr><tr><td><div><table></table></div></td></tr></table></div></td></tr><tr><td><div><table><tr><td><div><span class="highlighted">web2py</span></div></td></tr><tr><td><div>False</div></td></tr><tr><td><div>http://web2py.com</div></td></tr><tr><td><div><table><tr><td><div><table><tr><td><div>Mis Sitios</div></td></tr><tr><td><div>False</div></td></tr><tr><td><div>/admin/site</div></td></tr></table></div></td></tr><tr><td><div><table><tr><td><div>Esta Aplicaci\xc3\xb3n</div></td></tr><tr><td><div>False</div></td></tr><tr><td><div>/admin/design/OririPro</div></td></tr><tr><td><div>[(&lt;lazyT &#x27;Controller&#x27;&gt;, False, &#x27;/admin/edit/OririPro/controllers/Juego.py&#x27;), (&lt;lazyT &#x27;View&#x27;&gt;, False, &#x27;/admin/edit/OririPro/views/Juego/SetCalificacion.html&#x27;), (&lt;lazyT &#x27;Layout&#x27;&gt;, False, &#x27;/admin/edit/OririPro/views/layout.html&#x27;), (&lt;lazyT &#x27;Stylesheet&#x27;&gt;, False, &#x27;/admin/edit/OririPro/static/css/web2py.css&#x27;), (&lt;lazyT &#x27;DB Model&#x27;&gt;, False, &#x27;/admin/edit/OririPro/models/db.py&#x27;), (&lt;lazyT &#x27;Menu Model&#x27;&gt;, False, &#x27;/admin/edit/OririPro/models/menu.py&#x27;), (&lt;lazyT &#x27;Database&#x27;&gt;, False, &#x27;/appadmin&#x27;), (&lt;lazyT &#x27;Errors&#x27;&gt;, False, &#x27;/admin/errors/OririPro&#x27;), (&lt;lazyT &#x27;About&#x27;&gt;, False, &#x27;/admin/about/OririPro&#x27;)]</div></td></tr></table></div></td></tr><tr><td><div><table><tr><td><div>web2py.com</div></td></tr><tr><td><div>False</div></td></tr><tr><td><div>http://www.web2py.com</div></td></tr><tr><td><div>[(&lt;lazyT &#x27;Download&#x27;&gt;, False, &#x27;http://www.web2py.com/examples/default/download&#x27;), (&lt;lazyT &#x27;Support&#x27;&gt;, False, &#x27;http://www.web2py.com/examples/default/support&#x27;), (&lt;lazyT &#x27;Demo&#x27;&gt;, False, &#x27;http://web2py.com/demo_admin&#x27;), (&lt;lazyT &#x27;Quick Examples&#x27;&gt;, False, &#x27;http://web2py.com/examples/default/examples&#x27;), (&lt;lazyT &#x27;FAQ&#x27;&gt;, False, &#x27;http://web2py.com/AlterEgo&#x27;), (&lt;lazyT &#x27;Videos&#x27;&gt;, False, &#x27;http://www.web2py.com/examples/default/videos/&#x27;), (&lt;lazyT &#x27;Free Applications&#x27;&gt;, False, &#x27;http://web2py.com/appliances&#x27;), (&lt;lazyT &#x27;Plugins&#x27;&gt;, False, &#x27;http://web2py.com/plugins&#x27;), (&lt;lazyT &#x27;Layouts&#x27;&gt;, False, &#x27;http://web2py.com/layouts&#x27;), (&lt;lazyT &#x27;Recipes&#x27;&gt;, False, &#x27;http://web2pyslices.com/&#x27;), (&lt;lazyT &#x27;Semantic&#x27;&gt;, False, &#x27;http://web2py.com/semantic&#x27;)]</div></td></tr></table></div></td></tr><tr><td><div><table><tr><td><div>Documentaci\xc3\xb3n</div></td></tr><tr><td><div>False</div></td></tr><tr><td><div>http://www.web2py.com/book</div></td></tr><tr><td><div>[(&lt;lazyT &#x27;Preface&#x27;&gt;, False, &#x27;http://www.web2py.com/book/default/chapter/00&#x27;), (&lt;lazyT &#x27;Introduction&#x27;&gt;, False, &#x27;http://www.web2py.com/book/default/chapter/01&#x27;), (&lt;lazyT &#x27;Python&#x27;&gt;, False, &#x27;http://www.web2py.com/book/default/chapter/02&#x27;), (&lt;lazyT &#x27;Overview&#x27;&gt;, False, &#x27;http://www.web2py.com/book/default/chapter/03&#x27;), (&lt;lazyT &#x27;The Core&#x27;&gt;, False, &#x27;http://www.web2py.com/book/default/chapter/04&#x27;), (&lt;lazyT &#x27;The Views&#x27;&gt;, False, &#x27;http://www.web2py.com/book/default/chapter/05&#x27;), (&lt;lazyT &#x27;Database&#x27;&gt;, False, &#x27;http://www.web2py.com/book/default/chapter/06&#x27;), (&lt;lazyT &#x27;Forms and Validators&#x27;&gt;, False, &#x27;http://www.web2py.com/book/default/chapter/07&#x27;), (&lt;lazyT &#x27;Email and SMS&#x27;&gt;, False, &#x27;http://www.web2py.com/book/default/chapter/08&#x27;), (&lt;lazyT &#x27;Access Control&#x27;&gt;, False, &#x27;http://www.web2py.com/book/default/chapter/09&#x27;), (&lt;lazyT &#x27;Services&#x27;&gt;, False, &#x27;http://www.web2py.com/book/default/chapter/10&#x27;), (&lt;lazyT &#x27;Ajax Recipes&#x27;&gt;, False, &#x27;http://www.web2py.com/book/default/chapter/11&#x27;), (&lt;lazyT &#x27;Components and Plugins&#x27;&gt;, False, &#x27;http://www.web2py.com/book/default/chapter/12&#x27;), (&lt;lazyT &#x27;Deployment Recipes&#x27;&gt;, False, &#x27;http://www.web2py.com/book/default/chapter/13&#x27;), (&lt;lazyT &#x27;Other Recipes&#x27;&gt;, False, &#x27;http://www.web2py.com/book/default/chapter/14&#x27;), (&lt;lazyT &#x27;Buy this book&#x27;&gt;, False, &#x27;http://stores.lulu.com/web2py&#x27;)]</div></td></tr></table></div></td></tr><tr><td><div><table><tr><td><div>Comunidad</div></td></tr><tr><td><div>False</div></td></tr><tr><td><div>None</div></td></tr><tr><td><div>[(&lt;lazyT &#x27;Groups&#x27;&gt;, False, &#x27;http://www.web2py.com/examples/default/usergroups&#x27;), (&lt;lazyT &#x27;Twitter&#x27;&gt;, False, &#x27;http://twitter.com/web2py&#x27;), (&lt;lazyT &#x27;Live Chat&#x27;&gt;, False, &#x27;http://webchat.freenode.net/?channels=web2py&#x27;)]</div></td></tr></table></div></td></tr><tr><td><div><table><tr><td><div>Plugins</div></td></tr><tr><td><div>False</div></td></tr><tr><td><div>None</div></td></tr><tr><td><div>[(&#x27;plugin_wiki&#x27;, False, &#x27;http://web2py.com/examples/default/download&#x27;), (&lt;lazyT &#x27;Other Plugins&#x27;&gt;, False, &#x27;http://web2py.com/plugins&#x27;), (&lt;lazyT &#x27;Layout Plugins&#x27;&gt;, False, &#x27;http://web2py.com/layouts&#x27;)]</div></td></tr></table></div></td></tr></table></div></td></tr></table></div></td></tr></table></div></td></tr><tr><td style="font-weight:bold;vertical-align:top;">meta</td><td style="vertical-align:top;">:</td><td><div><table><tr><td style="font-weight:bold;vertical-align:top;">author</td><td style="vertical-align:top;">:</td><td><div>Your Name &lt;you@example.com&gt;</div></td></tr><tr><td style="font-weight:bold;vertical-align:top;">generator</td><td style="vertical-align:top;">:</td><td><div>Web2py Web Framework</div></td></tr><tr><td style="font-weight:bold;vertical-align:top;">keywords</td><td style="vertical-align:top;">:</td><td><div>web2py, python, framework</div></td></tr></table></div></td></tr><tr><td style="font-weight:bold;vertical-align:top;">models_to_run</td><td style="vertical-align:top;">:</td><td><div><table><tr><td><div>^\\w+\\.py$</div></td></tr><tr><td><div>^Juego/\\w+\\.py$</div></td></tr><tr><td><div>^Juego/SetCalificacion/\\w+\\.py$</div></td></tr></table></div></td></tr><tr><td style="font-weight:bold;vertical-align:top;">postprocessing</td><td style="vertical-align:top;">:</td><td><div><table></table></div></td></tr><tr><td style="font-weight:bold;vertical-align:top;">session_client</td><td style="vertical-align:top;">:</td><td><div>127.0.0.1</div></td></tr><tr><td style="font-weight:bold;vertical-align:top;">session_cookie_compression_level</td><td style="vertical-align:top;">:</td><td><div>None</div></td></tr><tr><td style="font-weight:bold;vertical-align:top;">session_cookie_expires</td><td style="vertical-align:top;">:</td><td><div>None</div></td></tr><tr><td style="font-weight:bold;vertical-align:top;">session_cookie_key</td><td style="vertical-align:top;">:</td><td><div>None</div></td></tr><tr><td style="font-weight:bold;vertical-align:top;">session_data_name</td><td style="vertical-align:top;">:</td><td><div>session_data_oriripro</div></td></tr><tr><td style="font-weight:bold;vertical-align:top;">session_file</td><td style="vertical-align:top;">:</td><td><div>&lt;open file &#x27;/home/eddiel/ProyectoTerminal/proyecto_terminal/applications/OririPro/sessions/127.0.0.1-c657d81b-5ad4-4826-b2b7-859c04d939f7&#x27;, mode &#x27;rb+&#x27; at 0xae680758&gt;</div></td></tr><tr><td style="font-weight:bold;vertical-align:top;">session_filename</td><td style="vertical-align:top;">:</td><td><div>/home/eddiel/ProyectoTerminal/proyecto_terminal/applications/OririPro/sessions/127.0.0.1-c657d81b-5ad4-4826-b2b7-859c04d939f7</div></td></tr><tr><td style="font-weight:bold;vertical-align:top;">session_hash</td><td style="vertical-align:top;">:</td><td><div>245bdf46d8fe686bfdf9180307d62588</div></td></tr><tr><td style="font-weight:bold;vertical-align:top;">session_id</td><td style="vertical-align:top;">:</td><td><div>127.0.0.1-c657d81b-5ad4-4826-b2b7-859c04d939f7</div></td></tr><tr><td style="font-weight:bold;vertical-align:top;">session_id_name</td><td style="vertical-align:top;">:</td><td><div>session_id_oriripro</div></td></tr><tr><td style="font-weight:bold;vertical-align:top;">session_locked</td><td style="vertical-align:top;">:</td><td><div>True</div></td></tr><tr><td style="font-weight:bold;vertical-align:top;">session_masterapp</td><td style="vertical-align:top;">:</td><td><div>OririPro</div></td></tr><tr><td style="font-weight:bold;vertical-align:top;">session_new</td><td style="vertical-align:top;">:</td><td><div>False</div></td></tr><tr><td style="font-weight:bold;vertical-align:top;">session_storage_type</td><td style="vertical-align:top;">:</td><td><div>file</div></td></tr><tr><td style="font-weight:bold;vertical-align:top;">status</td><td style="vertical-align:top;">:</td><td><div>200</div></td></tr><tr><td style="font-weight:bold;vertical-align:top;">subtitle</td><td style="vertical-align:top;">:</td><td><div></div></td></tr><tr><td style="font-weight:bold;vertical-align:top;">title</td><td style="vertical-align:top;">:</td><td><div>Oriripro</div></td></tr><tr><td style="font-weight:bold;vertical-align:top;">view</td><td style="vertical-align:top;">:</td><td><div>Juego/SetCalificacion.html</div></td></tr></table></div>'
tRp151
sS'locals'
p152
(dp153
S'var'
p154
S"<Storage {'tiempo': 'plus10', 'id': '464', 'time': 'Horas de estudio:78'}>"
p155
sS'idcalf'
p156
S'464'
p157
sssS'traceback'
p158
S'Traceback (most recent call last):\n  File "/home/eddiel/ProyectoTerminal/proyecto_terminal/gluon/restricted.py", line 220, in restricted\n    exec ccode in environment\n  File "/home/eddiel/ProyectoTerminal/proyecto_terminal/applications/OririPro/controllers/Juego.py", line 320, in <module>\n  File "/home/eddiel/ProyectoTerminal/proyecto_terminal/gluon/globals.py", line 385, in <lambda>\n    self._caller = lambda f: f()\n  File "/home/eddiel/ProyectoTerminal/proyecto_terminal/applications/OririPro/controllers/Juego.py", line 168, in SetCalificacion\n    time=int(var.time)#Tiempo Total de estudio TODO: MENOR QUE 0 return message\nValueError: invalid literal for int() with base 10: \'Horas de estudio:78\'\n'
p159
s.