(dp1
S'output'
p2
S"<type 'exceptions.SyntaxError'> Field IdTipoMateria does not belong to the table"
p3
sS'layer'
p4
S'/home/eddiel/ProyectoTerminal/Web2py/web2py/applications/AcademicaGame/controllers/admin.py'
p5
sS'code'
p6
S'# coding: utf8\ndef index():\n    return dict(message="hello from admin.py")\n\nimport xml.etree.ElementTree as ET\nimport os\ndef leerMaterias():\n    materias=os.path.join(request.folder, \'static\', \'materias.xml\')\n    print materias\n    print \'-------------Iniciando parsing del xml-------------\'\n    tree=ET.parse(materias)\n    root=tree.getroot()\n    Clave=root.get(\'clave\')\n    Carrera=root.get(\'carrera\')\n    CarreraData=db.Carrera.update_or_insert(db.Carrera.Clave==Clave,Titulo=Carrera,Clave=Clave)\n    print Clave\n    print Carrera\n    print\n    for Academia in root.findall(\'academia\'):\n        print \'---------------------ACADEMIA---------------------\'\n        NombreAcademia = Academia.get(\'nombre\')\n        AcademiaData=db.Academia.update_or_insert(db.Academia.Titulo==NombreAcademia,Titulo=NombreAcademia,IdCarrera=CarreraData.id)\n        print NombreAcademia\n        for Materia in Academia.findall(\'materia\'):\n               NombreMateria=Materia.get(\'nombre\')\n               ClaveMateria=Materia.get(\'clave\')\n               Creditos= Materia.find(\'creditos\')\n               #Cast Creditos\n               Creditos=int(format(Creditos.text))\n               Media= Materia.find(\'media\')\n               #Cast Media\n               Media=int(format(Media.text))\n               Varianza=Materia.find(\'varianza\')\n               #Cast Varianza\n               Varianza=int(format(Varianza.text))\n                #Cast Tipo\n               TipoMateria=format(Materia.find(\'tipo\').text)\n               Tipo=db(db.TipoMateria.Tipo==TipoMateria).select().first()\n               #Cast Ciclo\n               CicloMateria=Materia.find(\'ciclo\')\n               CicloMateria=format(CicloMateria.text)\n               MateriaData=db.Materia.update_or_insert(db.Materia.Nombre==NombreMateria,Nombre=NombreMateria,Creditos=Creditos,Media=Media,\n                                                       Varianza=Varianza,Clave=ClaveMateria,IdTipoMateria=Tipo.id)\n               print NombreMateria\n               print \'creditos:\',Creditos\n               print Tipo.Tipo\n               for Docente in Materia.findall(\'participante\'):\n                    Docente=format(Docente.text)\n                    DocenteData=db(db.Docente.Nombre==Docente).select().first()\n                    db.Materia_Docente.insert(IdMateria==MateriaData.id,IdDocente=DocenteData.id)\n                    print Docente\n    return locals()\n\ndef leerDocentes():\n    docentes=os.path.join(request.folder, \'static\', \'docentes.xml\')\n    print \'-------------Iniciando parsing del xml-------------\'\n    tree=ET.parse(docentes)\n    root=tree.getroot()\n    for docente in root.findall(\'docente\'):\n        print \'---------------------Docente---------------------\'\n        NombreDocente = docente.find(\'nombre\')\n        Dificultad=docente.find(\'dificultad\')\n        Dificultad=int(format(Dificultad.text))\n        NombreDocente=format(NombreDocente.text)\n        print NombreDocente\n        print Dificultad\n        db.Docente.update_or_insert(db.Docente.Nombre==NombreDocente,Nombre=NombreDocente,Dificultad=Dificultad)\n    session.flash=("Docentes insertados correctamente")\n    redirect(URL(\'index\'))\n    return locals()\n\nresponse._vars=response._caller(leerMaterias)\n'
p7
sS'snapshot'
p8
(dp9
S'exception'
p10
(dp11
S'__getslice__'
p12
S"<method-wrapper '__getslice__' of exceptions.SyntaxError object>"
p13
sS'text'
p14
S'None'
p15
sS'__str__'
p16
S"<method-wrapper '__str__' of exceptions.SyntaxError object>"
p17
sS'__reduce__'
p18
S'<built-in method __reduce__ of exceptions.SyntaxError object>'
p19
sS'__dict__'
p20
S'{}'
p21
sS'__sizeof__'
p22
S'<built-in method __sizeof__ of exceptions.SyntaxError object>'
p23
sS'__init__'
p24
S"<method-wrapper '__init__' of exceptions.SyntaxError object>"
p25
sS'__setattr__'
p26
S"<method-wrapper '__setattr__' of exceptions.SyntaxError object>"
p27
sS'__reduce_ex__'
p28
S'<built-in method __reduce_ex__ of exceptions.SyntaxError object>'
p29
sS'__new__'
p30
S'<built-in method __new__ of type object>'
p31
sS'__format__'
p32
S'<built-in method __format__ of exceptions.SyntaxError object>'
p33
sS'__class__'
p34
S"<type 'exceptions.SyntaxError'>"
p35
sS'filename'
p36
S'None'
p37
sS'lineno'
p38
S'None'
p39
sS'msg'
p40
S"'Field IdTipoMateria does not belong to the table'"
p41
sS'__doc__'
p42
S"'Invalid syntax.'"
p43
sS'__getitem__'
p44
S"<method-wrapper '__getitem__' of exceptions.SyntaxError object>"
p45
sS'__setstate__'
p46
S'<built-in method __setstate__ of exceptions.SyntaxError object>'
p47
sS'__getattribute__'
p48
S"<method-wrapper '__getattribute__' of exceptions.SyntaxError object>"
p49
sS'print_file_and_line'
p50
S'None'
p51
sS'args'
p52
S"('Field IdTipoMateria does not belong to the table',)"
p53
sS'__subclasshook__'
p54
S'<built-in method __subclasshook__ of type object>'
p55
sS'offset'
p56
S'None'
p57
sS'__unicode__'
p58
S'<built-in method __unicode__ of exceptions.SyntaxError object>'
p59
sS'__delattr__'
p60
S"<method-wrapper '__delattr__' of exceptions.SyntaxError object>"
p61
sS'__repr__'
p62
S"<method-wrapper '__repr__' of exceptions.SyntaxError object>"
p63
sS'__hash__'
p64
S"<method-wrapper '__hash__' of exceptions.SyntaxError object>"
p65
ssS'evalue'
p66
S'Field IdTipoMateria does not belong to the table'
p67
sS'request'
p68
cgluon.html
XML_unpickle
p69
(S's\x8d[\x00\x00<div><table><tr><td style="font-weight:bold;vertical-align:top;">ajax</td><td style="vertical-align:top;">:</td><td><div>False</div></td></tr><tr><td style="font-weight:bold;vertical-align:top;">application</td><td style="vertical-align:top;">:</td><td><div>AcademicaGame</div></td></tr><tr><td style="font-weight:bold;vertical-align:top;">args</td><td style="vertical-align:top;">:</td><td><div><table></table></div></td></tr><tr><td style="font-weight:bold;vertical-align:top;">cid</td><td style="vertical-align:top;">:</td><td><div>None</div></td></tr><tr><td style="font-weight:bold;vertical-align:top;">client</td><td style="vertical-align:top;">:</td><td><div>127.0.0.1</div></td></tr><tr><td style="font-weight:bold;vertical-align:top;">controller</td><td style="vertical-align:top;">:</td><td><div>admin</div></td></tr><tr><td style="font-weight:bold;vertical-align:top;">cookies</td><td style="vertical-align:top;">:</td><td><div><table><tr><td style="font-weight:bold;vertical-align:top;">session_id_academicagame</td><td style="vertical-align:top;">:</td><td><div>127.0.0.1-df27ef74-711a-45e0-8a58-70a7ee2db084<table><tr><td style="font-weight:bold;vertical-align:top;">comment</td><td style="vertical-align:top;">:</td><td><div></div></td></tr><tr><td style="font-weight:bold;vertical-align:top;">domain</td><td style="vertical-align:top;">:</td><td><div></div></td></tr><tr><td style="font-weight:bold;vertical-align:top;">expires</td><td style="vertical-align:top;">:</td><td><div></div></td></tr><tr><td style="font-weight:bold;vertical-align:top;">httponly</td><td style="vertical-align:top;">:</td><td><div></div></td></tr><tr><td style="font-weight:bold;vertical-align:top;">max-age</td><td style="vertical-align:top;">:</td><td><div></div></td></tr><tr><td style="font-weight:bold;vertical-align:top;">path</td><td style="vertical-align:top;">:</td><td><div></div></td></tr><tr><td style="font-weight:bold;vertical-align:top;">secure</td><td style="vertical-align:top;">:</td><td><div></div></td></tr><tr><td style="font-weight:bold;vertical-align:top;">version</td><td style="vertical-align:top;">:</td><td><div></div></td></tr></table></div></td></tr><tr><td style="font-weight:bold;vertical-align:top;">session_id_admin</td><td style="vertical-align:top;">:</td><td><div>127.0.0.1-d5917285-99bb-42fa-abe8-429e52547553<table><tr><td style="font-weight:bold;vertical-align:top;">comment</td><td style="vertical-align:top;">:</td><td><div></div></td></tr><tr><td style="font-weight:bold;vertical-align:top;">domain</td><td style="vertical-align:top;">:</td><td><div></div></td></tr><tr><td style="font-weight:bold;vertical-align:top;">expires</td><td style="vertical-align:top;">:</td><td><div></div></td></tr><tr><td style="font-weight:bold;vertical-align:top;">httponly</td><td style="vertical-align:top;">:</td><td><div></div></td></tr><tr><td style="font-weight:bold;vertical-align:top;">max-age</td><td style="vertical-align:top;">:</td><td><div></div></td></tr><tr><td style="font-weight:bold;vertical-align:top;">path</td><td style="vertical-align:top;">:</td><td><div></div></td></tr><tr><td style="font-weight:bold;vertical-align:top;">secure</td><td style="vertical-align:top;">:</td><td><div></div></td></tr><tr><td style="font-weight:bold;vertical-align:top;">version</td><td style="vertical-align:top;">:</td><td><div></div></td></tr></table></div></td></tr><tr><td style="font-weight:bold;vertical-align:top;">session_id_welcome</td><td style="vertical-align:top;">:</td><td><div>127.0.0.1-4568fa0d-8b3b-4883-9805-1b1cb6a1b592<table><tr><td style="font-weight:bold;vertical-align:top;">comment</td><td style="vertical-align:top;">:</td><td><div></div></td></tr><tr><td style="font-weight:bold;vertical-align:top;">domain</td><td style="vertical-align:top;">:</td><td><div></div></td></tr><tr><td style="font-weight:bold;vertical-align:top;">expires</td><td style="vertical-align:top;">:</td><td><div></div></td></tr><tr><td style="font-weight:bold;vertical-align:top;">httponly</td><td style="vertical-align:top;">:</td><td><div></div></td></tr><tr><td style="font-weight:bold;vertical-align:top;">max-age</td><td style="vertical-align:top;">:</td><td><div></div></td></tr><tr><td style="font-weight:bold;vertical-align:top;">path</td><td style="vertical-align:top;">:</td><td><div></div></td></tr><tr><td style="font-weight:bold;vertical-align:top;">secure</td><td style="vertical-align:top;">:</td><td><div></div></td></tr><tr><td style="font-weight:bold;vertical-align:top;">version</td><td style="vertical-align:top;">:</td><td><div></div></td></tr></table></div></td></tr></table></div></td></tr><tr><td style="font-weight:bold;vertical-align:top;">env</td><td style="vertical-align:top;">:</td><td><div><table><tr><td style="font-weight:bold;vertical-align:top;">HTTP_ACCEPT</td><td style="vertical-align:top;">:</td><td><div>text/html,application/xhtml+xml,application/xml;q=0.9,image/webp,*/*;q=0.8</div></td></tr><tr><td style="font-weight:bold;vertical-align:top;">HTTP_ACCEPT_ENCODING</td><td style="vertical-align:top;">:</td><td><div>gzip,deflate,sdch</div></td></tr><tr><td style="font-weight:bold;vertical-align:top;">HTTP_ACCEPT_LANGUAGE</td><td style="vertical-align:top;">:</td><td><div>es-419,es;q=0.8</div></td></tr><tr><td style="font-weight:bold;vertical-align:top;">HTTP_CACHE_CONTROL</td><td style="vertical-align:top;">:</td><td><div>max-age=0</div></td></tr><tr><td style="font-weight:bold;vertical-align:top;">HTTP_CONNECTION</td><td style="vertical-align:top;">:</td><td><div>keep-alive</div></td></tr><tr><td style="font-weight:bold;vertical-align:top;">HTTP_COOKIE</td><td style="vertical-align:top;">:</td><td><div>session_id_welcome=127.0.0.1-4568fa0d-8b3b-4883-9805-1b1cb6a1b592; session_id_academicagame=127.0.0.1-df27ef74-711a-45e0-8a58-70a7ee2db084; session_id_admin=127.0.0.1-d5917285-99bb-42fa-abe8-429e52547553</div></td></tr><tr><td style="font-weight:bold;vertical-align:top;">HTTP_HOST</td><td style="vertical-align:top;">:</td><td><div>127.0.0.1:8000</div></td></tr><tr><td style="font-weight:bold;vertical-align:top;">HTTP_USER_AGENT</td><td style="vertical-align:top;">:</td><td><div>Mozilla/5.0 (X11; Linux i686) AppleWebKit/537.36 (KHTML, like Gecko) Chrome/37.0.2062.120 Safari/537.36</div></td></tr><tr><td style="font-weight:bold;vertical-align:top;">PATH_INFO</td><td style="vertical-align:top;">:</td><td><div>/AcademicaGame/admin/leerMaterias</div></td></tr><tr><td style="font-weight:bold;vertical-align:top;">QUERY_STRING</td><td style="vertical-align:top;">:</td><td><div></div></td></tr><tr><td style="font-weight:bold;vertical-align:top;">REMOTE_ADDR</td><td style="vertical-align:top;">:</td><td><div>127.0.0.1</div></td></tr><tr><td style="font-weight:bold;vertical-align:top;">REMOTE_PORT</td><td style="vertical-align:top;">:</td><td><div>45683</div></td></tr><tr><td style="font-weight:bold;vertical-align:top;">REQUEST_METHOD</td><td style="vertical-align:top;">:</td><td><div>GET</div></td></tr><tr><td style="font-weight:bold;vertical-align:top;">SCRIPT_NAME</td><td style="vertical-align:top;">:</td><td><div></div></td></tr><tr><td style="font-weight:bold;vertical-align:top;">SERVER_NAME</td><td style="vertical-align:top;">:</td><td><div>eddiel-Presario-CQ42-Notebook-PC</div></td></tr><tr><td style="font-weight:bold;vertical-align:top;">SERVER_PORT</td><td style="vertical-align:top;">:</td><td><div>8000</div></td></tr><tr><td style="font-weight:bold;vertical-align:top;">SERVER_PROTOCOL</td><td style="vertical-align:top;">:</td><td><div>HTTP/1.1</div></td></tr><tr><td style="font-weight:bold;vertical-align:top;">SERVER_SOFTWARE</td><td style="vertical-align:top;">:</td><td><div>Rocket 1.2.6</div></td></tr><tr><td style="font-weight:bold;vertical-align:top;">app_folders</td><td style="vertical-align:top;">:</td><td><div>set([&#x27;/home/eddiel/ProyectoTerminal/Web2py/web2py/applications/AcademicaGame/&#x27;, &#x27;/home/eddiel/ProyectoTerminal/Web2py/web2py/applications/admin/&#x27;, &#x27;/home/eddiel/ProyectoTerminal/Web2py/web2py/applications/welcome/&#x27;])</div></td></tr><tr><td style="font-weight:bold;vertical-align:top;">applications_parent</td><td style="vertical-align:top;">:</td><td><div>/home/eddiel/ProyectoTerminal/Web2py/web2py</div></td></tr><tr><td style="font-weight:bold;vertical-align:top;">cmd_args</td><td style="vertical-align:top;">:</td><td><div><table></table></div></td></tr><tr><td style="font-weight:bold;vertical-align:top;">cmd_options</td><td style="vertical-align:top;">:</td><td><div>&lt;Values at 0xb692412c: {&#x27;verbose&#x27;: False, &#x27;ip&#x27;: &#x27;127.0.0.1&#x27;, &#x27;debuglevel&#x27;: 30, &#x27;with_scheduler&#x27;: False, &#x27;ips&#x27;: [&#x27;127.0.1.1&#x27;], &#x27;shutdown_timeout&#x27;: 5, &#x27;taskbar&#x27;: False, &#x27;with_coverage&#x27;: False, &#x27;port&#x27;: 8000, &#x27;maxthreads&#x27;: None, &#x27;softcron&#x27;: False, &#x27;server_name&#x27;: &#x27;eddiel-Presario-CQ42-Notebook-PC&#x27;, &#x27;bpython&#x27;: False, &#x27;nogui&#x27;: False, &#x27;pid_filename&#x27;: &#x27;httpserver.pid&#x27;, &#x27;extcron&#x27;: False, &#x27;runcron&#x27;: False, &#x27;run_system_tests&#x27;: False, &#x27;test&#x27;: None, &#x27;folder&#x27;: &#x27;/home/eddiel/ProyectoTerminal/Web2py/web2py&#x27;, &#x27;config&#x27;: &#x27;&#x27;, &#x27;minthreads&#x27;: None, &#x27;shell&#x27;: None, &#x27;run&#x27;: &#x27;&#x27;, &#x27;log_filename&#x27;: &#x27;httpserver.log&#x27;, &#x27;profiler_dir&#x27;: None, &#x27;args&#x27;: [&#x27;&#x27;], &#x27;socket_timeout&#x27;: 5, &#x27;ssl_ca_certificate&#x27;: None, &#x27;scheduler&#x27;: None, &#x27;interfaces&#x27;: None, &#x27;ssl_private_key&#x27;: &#x27;&#x27;, &#x27;scheduler_groups&#x27;: None, &#x27;password&#x27;: &#x27;&lt;ask&gt;&#x27;, &#x27;request_queue_size&#x27;: 5, &#x27;ssl_certificate&#x27;: &#x27;&#x27;, &#x27;cronjob&#x27;: False, &#x27;numthreads&#x27;: None, &#x27;quiet&#x27;: False, &#x27;import_models&#x27;: False, &#x27;timeout&#x27;: 10, &#x27;plain&#x27;: False, &#x27;nobanner&#x27;: False}&gt;</div></td></tr><tr><td style="font-weight:bold;vertical-align:top;">db_sessions</td><td style="vertical-align:top;">:</td><td><div>set([])</div></td></tr><tr><td style="font-weight:bold;vertical-align:top;">debugging</td><td style="vertical-align:top;">:</td><td><div>True</div></td></tr><tr><td style="font-weight:bold;vertical-align:top;">gluon_parent</td><td style="vertical-align:top;">:</td><td><div>/home/eddiel/ProyectoTerminal/Web2py/web2py</div></td></tr><tr><td style="font-weight:bold;vertical-align:top;">http_accept</td><td style="vertical-align:top;">:</td><td><div>text/html,application/xhtml+xml,application/xml;q=0.9,image/webp,*/*;q=0.8</div></td></tr><tr><td style="font-weight:bold;vertical-align:top;">http_accept_encoding</td><td style="vertical-align:top;">:</td><td><div>gzip,deflate,sdch</div></td></tr><tr><td style="font-weight:bold;vertical-align:top;">http_accept_language</td><td style="vertical-align:top;">:</td><td><div>es-419,es;q=0.8</div></td></tr><tr><td style="font-weight:bold;vertical-align:top;">http_cache_control</td><td style="vertical-align:top;">:</td><td><div>max-age=0</div></td></tr><tr><td style="font-weight:bold;vertical-align:top;">http_connection</td><td style="vertical-align:top;">:</td><td><div>keep-alive</div></td></tr><tr><td style="font-weight:bold;vertical-align:top;">http_cookie</td><td style="vertical-align:top;">:</td><td><div>session_id_welcome=127.0.0.1-4568fa0d-8b3b-4883-9805-1b1cb6a1b592; session_id_academicagame=127.0.0.1-df27ef74-711a-45e0-8a58-70a7ee2db084; session_id_admin=127.0.0.1-d5917285-99bb-42fa-abe8-429e52547553</div></td></tr><tr><td style="font-weight:bold;vertical-align:top;">http_host</td><td style="vertical-align:top;">:</td><td><div>127.0.0.1:8000</div></td></tr><tr><td style="font-weight:bold;vertical-align:top;">http_user_agent</td><td style="vertical-align:top;">:</td><td><div>Mozilla/5.0 (X11; Linux i686) AppleWebKit/537.36 (KHTML, like Gecko) Chrome/37.0.2062.120 Safari/537.36</div></td></tr><tr><td style="font-weight:bold;vertical-align:top;">is_jython</td><td style="vertical-align:top;">:</td><td><div>False</div></td></tr><tr><td style="font-weight:bold;vertical-align:top;">is_pypy</td><td style="vertical-align:top;">:</td><td><div>False</div></td></tr><tr><td style="font-weight:bold;vertical-align:top;">is_source</td><td style="vertical-align:top;">:</td><td><div>True</div></td></tr><tr><td style="font-weight:bold;vertical-align:top;">local_hosts</td><td style="vertical-align:top;">:</td><td><div><table><tr><td><div>eddiel-Presario-CQ42-Notebook-PC</div></td></tr><tr><td><div>::1</div></td></tr><tr><td><div>127.0.1.1</div></td></tr><tr><td><div>::ffff:127.0.0.1</div></td></tr><tr><td><div>127.0.0.1</div></td></tr></table></div></td></tr><tr><td style="font-weight:bold;vertical-align:top;">path_info</td><td style="vertical-align:top;">:</td><td><div>/AcademicaGame/admin/leerMaterias</div></td></tr><tr><td style="font-weight:bold;vertical-align:top;">query_string</td><td style="vertical-align:top;">:</td><td><div></div></td></tr><tr><td style="font-weight:bold;vertical-align:top;">remote_addr</td><td style="vertical-align:top;">:</td><td><div>127.0.0.1</div></td></tr><tr><td style="font-weight:bold;vertical-align:top;">remote_port</td><td style="vertical-align:top;">:</td><td><div>45683</div></td></tr><tr><td style="font-weight:bold;vertical-align:top;">request_method</td><td style="vertical-align:top;">:</td><td><div>GET</div></td></tr><tr><td style="font-weight:bold;vertical-align:top;">request_uri</td><td style="vertical-align:top;">:</td><td><div>/AcademicaGame/admin/leerMaterias</div></td></tr><tr><td style="font-weight:bold;vertical-align:top;">script_name</td><td style="vertical-align:top;">:</td><td><div></div></td></tr><tr><td style="font-weight:bold;vertical-align:top;">server_name</td><td style="vertical-align:top;">:</td><td><div>eddiel-Presario-CQ42-Notebook-PC</div></td></tr><tr><td style="font-weight:bold;vertical-align:top;">server_port</td><td style="vertical-align:top;">:</td><td><div>8000</div></td></tr><tr><td style="font-weight:bold;vertical-align:top;">server_protocol</td><td style="vertical-align:top;">:</td><td><div>HTTP/1.1</div></td></tr><tr><td style="font-weight:bold;vertical-align:top;">server_software</td><td style="vertical-align:top;">:</td><td><div>Rocket 1.2.6</div></td></tr><tr><td style="font-weight:bold;vertical-align:top;">web2py_path</td><td style="vertical-align:top;">:</td><td><div>/home/eddiel/ProyectoTerminal/Web2py/web2py</div></td></tr><tr><td style="font-weight:bold;vertical-align:top;">web2py_version</td><td style="vertical-align:top;">:</td><td><div>2.9.5-stable+timestamp.2014.03.16.02.35.39</div></td></tr><tr><td style="font-weight:bold;vertical-align:top;">wsgi.errors</td><td style="vertical-align:top;">:</td><td><div>&lt;open file &#x27;&lt;stderr&gt;&#x27;, mode &#x27;w&#x27; at 0xb74830d0&gt;</div></td></tr><tr><td style="font-weight:bold;vertical-align:top;">wsgi.file_wrapper</td><td style="vertical-align:top;">:</td><td><div>&lt;class wsgiref.util.FileWrapper at 0xb670b86c&gt;</div></td></tr><tr><td style="font-weight:bold;vertical-align:top;">wsgi.input</td><td style="vertical-align:top;">:</td><td><div>&lt;socket._fileobject object at 0xad51e72c&gt;</div></td></tr><tr><td style="font-weight:bold;vertical-align:top;">wsgi.multiprocess</td><td style="vertical-align:top;">:</td><td><div>False</div></td></tr><tr><td style="font-weight:bold;vertical-align:top;">wsgi.multithread</td><td style="vertical-align:top;">:</td><td><div>True</div></td></tr><tr><td style="font-weight:bold;vertical-align:top;">wsgi.run_once</td><td style="vertical-align:top;">:</td><td><div>False</div></td></tr><tr><td style="font-weight:bold;vertical-align:top;">wsgi.url_scheme</td><td style="vertical-align:top;">:</td><td><div>http</div></td></tr><tr><td style="font-weight:bold;vertical-align:top;">wsgi.version</td><td style="vertical-align:top;">:</td><td><div><table><tr><td><div>1</div></td></tr><tr><td><div>0</div></td></tr></table></div></td></tr><tr><td style="font-weight:bold;vertical-align:top;">wsgi_errors</td><td style="vertical-align:top;">:</td><td><div>&lt;open file &#x27;&lt;stderr&gt;&#x27;, mode &#x27;w&#x27; at 0xb74830d0&gt;</div></td></tr><tr><td style="font-weight:bold;vertical-align:top;">wsgi_file_wrapper</td><td style="vertical-align:top;">:</td><td><div>&lt;class wsgiref.util.FileWrapper at 0xb670b86c&gt;</div></td></tr><tr><td style="font-weight:bold;vertical-align:top;">wsgi_input</td><td style="vertical-align:top;">:</td><td><div>&lt;socket._fileobject object at 0xad51e72c&gt;</div></td></tr><tr><td style="font-weight:bold;vertical-align:top;">wsgi_multiprocess</td><td style="vertical-align:top;">:</td><td><div>False</div></td></tr><tr><td style="font-weight:bold;vertical-align:top;">wsgi_multithread</td><td style="vertical-align:top;">:</td><td><div>True</div></td></tr><tr><td style="font-weight:bold;vertical-align:top;">wsgi_run_once</td><td style="vertical-align:top;">:</td><td><div>False</div></td></tr><tr><td style="font-weight:bold;vertical-align:top;">wsgi_url_scheme</td><td style="vertical-align:top;">:</td><td><div>http</div></td></tr><tr><td style="font-weight:bold;vertical-align:top;">wsgi_version</td><td style="vertical-align:top;">:</td><td><div><table><tr><td><div>1</div></td></tr><tr><td><div>0</div></td></tr></table></div></td></tr></table></div></td></tr><tr><td style="font-weight:bold;vertical-align:top;">extension</td><td style="vertical-align:top;">:</td><td><div>html</div></td></tr><tr><td style="font-weight:bold;vertical-align:top;">folder</td><td style="vertical-align:top;">:</td><td><div>/home/eddiel/ProyectoTerminal/Web2py/web2py/applications/AcademicaGame/</div></td></tr><tr><td style="font-weight:bold;vertical-align:top;">function</td><td style="vertical-align:top;">:</td><td><div>leerMaterias</div></td></tr><tr><td style="font-weight:bold;vertical-align:top;">global_settings</td><td style="vertical-align:top;">:</td><td><div><table><tr><td style="font-weight:bold;vertical-align:top;">app_folders</td><td style="vertical-align:top;">:</td><td><div>set([&#x27;/home/eddiel/ProyectoTerminal/Web2py/web2py/applications/AcademicaGame/&#x27;, &#x27;/home/eddiel/ProyectoTerminal/Web2py/web2py/applications/admin/&#x27;, &#x27;/home/eddiel/ProyectoTerminal/Web2py/web2py/applications/welcome/&#x27;])</div></td></tr><tr><td style="font-weight:bold;vertical-align:top;">applications_parent</td><td style="vertical-align:top;">:</td><td><div>/home/eddiel/ProyectoTerminal/Web2py/web2py</div></td></tr><tr><td style="font-weight:bold;vertical-align:top;">cmd_args</td><td style="vertical-align:top;">:</td><td><div><table></table></div></td></tr><tr><td style="font-weight:bold;vertical-align:top;">cmd_options</td><td style="vertical-align:top;">:</td><td><div>&lt;Values at 0xb692412c: {&#x27;verbose&#x27;: False, &#x27;ip&#x27;: &#x27;127.0.0.1&#x27;, &#x27;debuglevel&#x27;: 30, &#x27;with_scheduler&#x27;: False, &#x27;ips&#x27;: [&#x27;127.0.1.1&#x27;], &#x27;shutdown_timeout&#x27;: 5, &#x27;taskbar&#x27;: False, &#x27;with_coverage&#x27;: False, &#x27;port&#x27;: 8000, &#x27;maxthreads&#x27;: None, &#x27;softcron&#x27;: False, &#x27;server_name&#x27;: &#x27;eddiel-Presario-CQ42-Notebook-PC&#x27;, &#x27;bpython&#x27;: False, &#x27;nogui&#x27;: False, &#x27;pid_filename&#x27;: &#x27;httpserver.pid&#x27;, &#x27;extcron&#x27;: False, &#x27;runcron&#x27;: False, &#x27;run_system_tests&#x27;: False, &#x27;test&#x27;: None, &#x27;folder&#x27;: &#x27;/home/eddiel/ProyectoTerminal/Web2py/web2py&#x27;, &#x27;config&#x27;: &#x27;&#x27;, &#x27;minthreads&#x27;: None, &#x27;shell&#x27;: None, &#x27;run&#x27;: &#x27;&#x27;, &#x27;log_filename&#x27;: &#x27;httpserver.log&#x27;, &#x27;profiler_dir&#x27;: None, &#x27;args&#x27;: [&#x27;&#x27;], &#x27;socket_timeout&#x27;: 5, &#x27;ssl_ca_certificate&#x27;: None, &#x27;scheduler&#x27;: None, &#x27;interfaces&#x27;: None, &#x27;ssl_private_key&#x27;: &#x27;&#x27;, &#x27;scheduler_groups&#x27;: None, &#x27;password&#x27;: &#x27;&lt;ask&gt;&#x27;, &#x27;request_queue_size&#x27;: 5, &#x27;ssl_certificate&#x27;: &#x27;&#x27;, &#x27;cronjob&#x27;: False, &#x27;numthreads&#x27;: None, &#x27;quiet&#x27;: False, &#x27;import_models&#x27;: False, &#x27;timeout&#x27;: 10, &#x27;plain&#x27;: False, &#x27;nobanner&#x27;: False}&gt;</div></td></tr><tr><td style="font-weight:bold;vertical-align:top;">db_sessions</td><td style="vertical-align:top;">:</td><td><div>set([])</div></td></tr><tr><td style="font-weight:bold;vertical-align:top;">debugging</td><td style="vertical-align:top;">:</td><td><div>True</div></td></tr><tr><td style="font-weight:bold;vertical-align:top;">gluon_parent</td><td style="vertical-align:top;">:</td><td><div>/home/eddiel/ProyectoTerminal/Web2py/web2py</div></td></tr><tr><td style="font-weight:bold;vertical-align:top;">is_jython</td><td style="vertical-align:top;">:</td><td><div>False</div></td></tr><tr><td style="font-weight:bold;vertical-align:top;">is_pypy</td><td style="vertical-align:top;">:</td><td><div>False</div></td></tr><tr><td style="font-weight:bold;vertical-align:top;">is_source</td><td style="vertical-align:top;">:</td><td><div>True</div></td></tr><tr><td style="font-weight:bold;vertical-align:top;">local_hosts</td><td style="vertical-align:top;">:</td><td><div><table><tr><td><div>eddiel-Presario-CQ42-Notebook-PC</div></td></tr><tr><td><div>::1</div></td></tr><tr><td><div>127.0.1.1</div></td></tr><tr><td><div>::ffff:127.0.0.1</div></td></tr><tr><td><div>127.0.0.1</div></td></tr></table></div></td></tr><tr><td style="font-weight:bold;vertical-align:top;">web2py_version</td><td style="vertical-align:top;">:</td><td><div>2.9.5-stable+timestamp.2014.03.16.02.35.39</div></td></tr></table></div></td></tr><tr><td style="font-weight:bold;vertical-align:top;">is_https</td><td style="vertical-align:top;">:</td><td><div>False</div></td></tr><tr><td style="font-weight:bold;vertical-align:top;">is_local</td><td style="vertical-align:top;">:</td><td><div>True</div></td></tr><tr><td style="font-weight:bold;vertical-align:top;">is_restful</td><td style="vertical-align:top;">:</td><td><div>False</div></td></tr><tr><td style="font-weight:bold;vertical-align:top;">now</td><td style="vertical-align:top;">:</td><td><div>datetime.datetime(2014, 10, 2, 4, 32, 32, 644068)</div></td></tr><tr><td style="font-weight:bold;vertical-align:top;">raw_args</td><td style="vertical-align:top;">:</td><td><div></div></td></tr><tr><td style="font-weight:bold;vertical-align:top;">raw_extension</td><td style="vertical-align:top;">:</td><td><div>None</div></td></tr><tr><td style="font-weight:bold;vertical-align:top;">url</td><td style="vertical-align:top;">:</td><td><div>/AcademicaGame/admin/leerMaterias</div></td></tr><tr><td style="font-weight:bold;vertical-align:top;">utcnow</td><td style="vertical-align:top;">:</td><td><div>datetime.datetime(2014, 10, 2, 9, 32, 32, 644097)</div></td></tr><tr><td style="font-weight:bold;vertical-align:top;">uuid</td><td style="vertical-align:top;">:</td><td><div>AcademicaGame/127.0.0.1.2014-10-02.04-32-32.1396dc90-05ca-41ee-b42a-9f9bd7ad5e2f</div></td></tr><tr><td style="font-weight:bold;vertical-align:top;">wsgi</td><td style="vertical-align:top;">:</td><td><div>&lt;gluon.main.LazyWSGI object at 0xad4ba4ec&gt;</div></td></tr></table></div>'
tRp70
sS'frames'
p71
(lp72
(dp73
S'file'
p74
S'/home/eddiel/ProyectoTerminal/Web2py/web2py/gluon/restricted.py'
p75
sS'dump'
p76
(dp77
S'environment'
p78
S"{'A': <class 'gluon.html.A'>, 'ANY_OF': <class 'gluon.validators.ANY_OF'>, 'Auth': <class 'gluon.tools.Auth'>, 'B': <class 'gluon.html.B'>, 'BEAUTIFY': <class 'gluon.html.BEAUTIFY'>, 'BODY': <class 'gluon.html.BODY'>, 'BR': <class 'gluon.html.BR'>, 'BUTTON': <class 'gluon.html.BUTTON'>, 'CAT': <class 'gluon.html.CAT'>, 'CENTER': <class 'gluon.html.CENTER'>, ...}"
p79
sS'ccode'
p80
S'<code object <module> at 0xacd97e30, file "/home...ions/AcademicaGame/controllers/admin.py", line 2>'
p81
ssS'lnum'
p82
I220
sS'lines'
p83
(dp84
I224
S'        # do not encapsulate (obfuscate) the original RestrictedError'
p85
sI215
S'    try:'
p86
sI216
S'        if isinstance(code, types.CodeType):'
p87
sI217
S'            ccode = code'
p88
sI218
S'        else:'
p89
sI219
S'            ccode = compile2(code, layer)'
p90
sI220
S'        exec ccode in environment'
p91
sI221
S'    except HTTP:'
p92
sI222
S'        raise'
p93
sI223
S'    except RestrictedError:'
p94
ssS'call'
p95
S"(code='# coding: utf8\\ndef index():\\n    return dict(mess...)\\n\\nresponse._vars=response._caller(leerMaterias)\\n', environment={'A': <class 'gluon.html.A'>, 'ANY_OF': <class 'gluon.validators.ANY_OF'>, 'Auth': <class 'gluon.tools.Auth'>, 'B': <class 'gluon.html.B'>, 'BEAUTIFY': <class 'gluon.html.BEAUTIFY'>, 'BODY': <class 'gluon.html.BODY'>, 'BR': <class 'gluon.html.BR'>, 'BUTTON': <class 'gluon.html.BUTTON'>, 'CAT': <class 'gluon.html.CAT'>, 'CENTER': <class 'gluon.html.CENTER'>, ...}, layer='/home/eddiel/ProyectoTerminal/Web2py/web2py/applications/AcademicaGame/controllers/admin.py')"
p96
sS'func'
p97
S'restricted'
p98
sa(dp99
g74
S'/home/eddiel/ProyectoTerminal/Web2py/web2py/applications/AcademicaGame/controllers/admin.py'
p100
sg76
(dp101
sg82
I72
sg83
(dp102
I64
S'        NombreDocente=format(NombreDocente.text)'
p103
sI65
S'        print NombreDocente'
p104
sI66
S'        print Dificultad'
p105
sI67
S'        db.Docente.update_or_insert(db.Docente.Nombre==NombreDocente,Nombre=NombreDocente,Dificultad=Dificultad)'
p106
sI68
S'    session.flash=("Docentes insertados correctamente")'
p107
sI69
S"    redirect(URL('index'))"
p108
sI70
S'    return locals()'
p109
sI61
S"        NombreDocente = docente.find('nombre')"
p110
sI62
S"        Dificultad=docente.find('dificultad')"
p111
sI63
S'        Dificultad=int(format(Dificultad.text))'
p112
ssg95
S'()'
p113
sg97
S'<module>'
p114
sa(dp115
g74
S'/home/eddiel/ProyectoTerminal/Web2py/web2py/gluon/globals.py'
p116
sg76
(dp117
S'self'
p118
S'undefined'
p119
sS'f'
S'<function leerMaterias>'
p120
ssg82
I385
sg83
(dp121
I384
S'        self._vars = None'
p122
sI385
S'        self._caller = lambda f: f()'
p123
sI386
S'        self._view_environment = None'
p124
sI387
S'        self._custom_commit = None'
p125
sI388
S'        self._custom_rollback = None'
p126
sI389
S''
sI380
S'        self.menu = []             # used by the default view layout'
p127
sI381
S'        self.files = []            # used by web2py_ajax.html'
p128
sI382
S'        self.generic_patterns = []  # patterns to allow generic views'
p129
sI383
S"        self.delimiters = ('{{', '}}')"
p130
ssg95
S'(f=<function leerMaterias>)'
p131
sg97
S'<lambda>'
p132
sa(dp133
g74
S'/home/eddiel/ProyectoTerminal/Web2py/web2py/applications/AcademicaGame/controllers/admin.py'
p134
sg76
(dp135
S'Varianza'
p136
S'1'
sS'Tipo'
p137
S"<Row {'id': 1L, 'Tipo': 'Basica'}>"
p138
sS'ClaveMateria'
p139
S"'II0101'"
p140
sS'IdTipoMateria'
p141
g119
sS'Tipo.id'
p142
S'1L'
p143
sS'Clave'
p144
S"'IT2014'"
p145
ssg82
I43
sg83
(dp146
I38
S'               Tipo=db(db.TipoMateria.Tipo==TipoMateria).select().first()'
p147
sI39
S'               #Cast Ciclo'
p148
sI40
S"               CicloMateria=Materia.find('ciclo')"
p149
sI41
S'               CicloMateria=format(CicloMateria.text)'
p150
sI42
S'               MateriaData=db.Materia.update_or_insert(db.Materia.Nombre==NombreMateria,Nombre=NombreMateria,Creditos=Creditos,Media=Media,'
p151
sI43
S'                                                       Varianza=Varianza,Clave=ClaveMateria,IdTipoMateria=Tipo.id)'
p152
sI44
S'               print NombreMateria'
p153
sI45
S"               print 'creditos:',Creditos"
p154
sI46
S'               print Tipo.Tipo'
p155
sI47
S"               for Docente in Materia.findall('participante'):"
p156
ssg95
S'()'
p157
sg97
S'leerMaterias'
p158
sa(dp159
g74
S'/home/eddiel/ProyectoTerminal/Web2py/web2py/gluon/dal.py'
p160
sg76
(dp161
S'self.insert'
p162
S'<bound method Table.insert of <Table Materia (id...ia,Varianza,Creditos,Ciclo,IDTipoMateria,Clave)>>'
p163
sS'values'
p164
S"{'Clave': 'II0101', 'Creditos': 8, 'IdTipoMateria': 1L, 'Media': 8, 'Nombre': u'\\xc1lgebra y Geometr\\xeda Anal\\xedtica', 'Varianza': 1}"
p165
sS'self'
p166
S'<Table Materia (id,IdAcademia,Nombre,Media,Varianza,Creditos,Ciclo,IDTipoMateria,Clave)>'
p167
sS'newid'
p168
g119
ssg82
I9182
sg83
(dp169
I9184
S''
sI9185
S'    def validate_and_update_or_insert(self, _key=DEFAULT, **fields):'
p170
sI9186
S"        if _key is DEFAULT or _key == '':"
p171
sI9177
S'            record = self(_key)'
p172
sI9178
S'        if record:'
p173
sI9179
S'            record.update_record(**values)'
p174
sI9180
S'            newid = None'
p175
sI9181
S'        else:'
p176
sI9182
S'            newid = self.insert(**values)'
p177
sI9183
S'        return newid'
p178
ssg95
S"(self=<Table Materia (id,IdAcademia,Nombre,Media,Varianza,Creditos,Ciclo,IDTipoMateria,Clave)>, _key=<Query (Materia.Nombre = '\xc3\x81lgebra y Geometr\xc3\xada Anal\xc3\xadtica')>, **values={'Clave': 'II0101', 'Creditos': 8, 'IdTipoMateria': 1L, 'Media': 8, 'Nombre': u'\\xc1lgebra y Geometr\\xeda Anal\\xedtica', 'Varianza': 1})"
p179
sg97
S'update_or_insert'
p180
sa(dp181
g74
S'/home/eddiel/ProyectoTerminal/Web2py/web2py/gluon/dal.py'
p182
sg76
(dp183
S'self._listify'
p184
S'<bound method Table._listify of <Table Materia (...ia,Varianza,Creditos,Ciclo,IDTipoMateria,Clave)>>'
p185
sS'fields'
p186
S"{'Clave': 'II0101', 'Creditos': 8, 'IdTipoMateria': 1L, 'Media': 8, 'Nombre': u'\\xc1lgebra y Geometr\\xeda Anal\\xedtica', 'Varianza': 1}"
p187
sS'self'
p188
S'<Table Materia (id,IdAcademia,Nombre,Media,Varianza,Creditos,Ciclo,IDTipoMateria,Clave)>'
p189
sS'ret'
p190
g119
sS'self._db._adapter'
p191
S'<gluon.dal.SQLiteAdapter object>'
p192
sS'self._db._adapter.insert'
p193
S'<bound method SQLiteAdapter.insert of <gluon.dal.SQLiteAdapter object>>'
p194
sS'self._db'
p195
S'<DAL uri="sqlite://storage.sqlite">'
p196
ssg82
I9114
sg83
(dp197
I9109
S''
sI9110
S'    def insert(self, **fields):'
p198
sI9111
S'        fields = self._defaults(fields)'
p199
sI9112
S'        self._attempt_upload(fields)'
p200
sI9113
S'        if any(f(fields) for f in self._before_insert): return 0'
p201
sI9114
S'        ret =  self._db._adapter.insert(self, self._listify(fields))'
p202
sI9115
S'        if ret and self._after_insert:'
p203
sI9116
S'            fields = Row(fields)'
p204
sI9117
S'            [f(fields,ret) for f in self._after_insert]'
p205
sI9118
S'        return ret'
p206
ssg95
S"(self=<Table Materia (id,IdAcademia,Nombre,Media,Varianza,Creditos,Ciclo,IDTipoMateria,Clave)>, **fields={'Clave': 'II0101', 'Creditos': 8, 'IdTipoMateria': 1L, 'Media': 8, 'Nombre': u'\\xc1lgebra y Geometr\\xeda Anal\\xedtica', 'Varianza': 1})"
p207
sg97
S'insert'
p208
sa(dp209
g74
S'/home/eddiel/ProyectoTerminal/Web2py/web2py/gluon/dal.py'
p210
sg76
(dp211
S'name'
p212
S"'IdTipoMateria'"
p213
ssg82
I9040
sg83
(dp214
I9035
S'        # store all fields passed as input in new_fields'
p215
sI9036
S'        for name in fields:'
p216
sI9037
S'            if not name in self.fields:'
p217
sI9038
S"                if name != 'id':"
p218
sI9039
S'                    raise SyntaxError('
p219
sI9040
S"                        'Field %s does not belong to the table' % name)"
p220
sI9041
S'            else:'
p221
sI9042
S'                field = self[name]'
p222
sI9043
S'                value = fields[name]'
p223
sI9044
S'                if field.filter_in:'
p224
ssg95
S"(self=<Table Materia (id,IdAcademia,Nombre,Media,Varianza,Creditos,Ciclo,IDTipoMateria,Clave)>, fields={'Clave': 'II0101', 'Creditos': 8, 'IdTipoMateria': 1L, 'Media': 8, 'Nombre': u'\\xc1lgebra y Geometr\\xeda Anal\\xedtica', 'Varianza': 1}, update=False)"
p225
sg97
S'_listify'
p226
sasS'pyver'
p227
S'Python 2.7.6: /usr/bin/python (prefix: /usr)'
p228
sS'session'
p229
g69
(S's\xba\x01\x00\x00<div><table><tr><td style="font-weight:bold;vertical-align:top;">flash</td><td style="vertical-align:top;">:</td><td><div>None</div></td></tr><tr><td style="font-weight:bold;vertical-align:top;">last_orderby</td><td style="vertical-align:top;">:</td><td><div>None</div></td></tr><tr><td style="font-weight:bold;vertical-align:top;">last_query</td><td style="vertical-align:top;">:</td><td><div>db.Docente.id&gt;0</div></td></tr></table></div>'
tRp230
sS'etype'
p231
S"<type 'exceptions.SyntaxError'>"
p232
sS'date'
p233
S'Thu Oct  2 04:32:32 2014'
p234
sS'response'
p235
g69
(S's\x182\x00\x00<div><table><tr><td style="font-weight:bold;vertical-align:top;">body</td><td style="vertical-align:top;">:</td><td><div>&lt;cStringIO.StringO object at 0xadd64620&gt;</div></td></tr><tr><td style="font-weight:bold;vertical-align:top;">cookies</td><td style="vertical-align:top;">:</td><td><div><table><tr><td style="font-weight:bold;vertical-align:top;">session_id_academicagame</td><td style="vertical-align:top;">:</td><td><div>127.0.0.1-df27ef74-711a-45e0-8a58-70a7ee2db084<table><tr><td style="font-weight:bold;vertical-align:top;">comment</td><td style="vertical-align:top;">:</td><td><div></div></td></tr><tr><td style="font-weight:bold;vertical-align:top;">domain</td><td style="vertical-align:top;">:</td><td><div></div></td></tr><tr><td style="font-weight:bold;vertical-align:top;">expires</td><td style="vertical-align:top;">:</td><td><div></div></td></tr><tr><td style="font-weight:bold;vertical-align:top;">httponly</td><td style="vertical-align:top;">:</td><td><div></div></td></tr><tr><td style="font-weight:bold;vertical-align:top;">max-age</td><td style="vertical-align:top;">:</td><td><div></div></td></tr><tr><td style="font-weight:bold;vertical-align:top;">path</td><td style="vertical-align:top;">:</td><td><div>/</div></td></tr><tr><td style="font-weight:bold;vertical-align:top;">secure</td><td style="vertical-align:top;">:</td><td><div></div></td></tr><tr><td style="font-weight:bold;vertical-align:top;">version</td><td style="vertical-align:top;">:</td><td><div></div></td></tr></table></div></td></tr></table></div></td></tr><tr><td style="font-weight:bold;vertical-align:top;">delimiters</td><td style="vertical-align:top;">:</td><td><div><table><tr><td><div>{{</div></td></tr><tr><td><div>}}</div></td></tr></table></div></td></tr><tr><td style="font-weight:bold;vertical-align:top;">files</td><td style="vertical-align:top;">:</td><td><div><table></table></div></td></tr><tr><td style="font-weight:bold;vertical-align:top;">flash</td><td style="vertical-align:top;">:</td><td><div></div></td></tr><tr><td style="font-weight:bold;vertical-align:top;">generic_patterns</td><td style="vertical-align:top;">:</td><td><div><table><tr><td><div>*</div></td></tr></table></div></td></tr><tr><td style="font-weight:bold;vertical-align:top;">google_analytics_id</td><td style="vertical-align:top;">:</td><td><div>None</div></td></tr><tr><td style="font-weight:bold;vertical-align:top;">headers</td><td style="vertical-align:top;">:</td><td><div><table><tr><td style="font-weight:bold;vertical-align:top;">X-Powered-By</td><td style="vertical-align:top;">:</td><td><div>web2py</div></td></tr></table></div></td></tr><tr><td style="font-weight:bold;vertical-align:top;">logo</td><td style="vertical-align:top;">:</td><td><div><a class="brand" href="http://www.web2py.com/"><b>web<span>2</span>py</b>&trade;&nbsp;</a></div></td></tr><tr><td style="font-weight:bold;vertical-align:top;">menu</td><td style="vertical-align:top;">:</td><td><div><table><tr><td><div><table><tr><td><div>Inicio</div></td></tr><tr><td><div>False</div></td></tr><tr><td><div>/AcademicaGame/default/index</div></td></tr><tr><td><div><table></table></div></td></tr></table></div></td></tr><tr><td><div><table><tr><td><div><span class="highlighted">web2py</span></div></td></tr><tr><td><div>False</div></td></tr><tr><td><div>http://web2py.com</div></td></tr><tr><td><div><table><tr><td><div><table><tr><td><div>Mis Sitios</div></td></tr><tr><td><div>False</div></td></tr><tr><td><div>/admin/default/site</div></td></tr></table></div></td></tr><tr><td><div><table><tr><td><div>Esta Aplicaci\xc3\xb3n</div></td></tr><tr><td><div>False</div></td></tr><tr><td><div>/admin/default/design/AcademicaGame</div></td></tr><tr><td><div>[(&lt;lazyT &#x27;Controller&#x27;&gt;, False, &#x27;/admin/default/edit/AcademicaGame/controllers/admin.py&#x27;), (&lt;lazyT &#x27;View&#x27;&gt;, False, &#x27;/admin/default/edit/AcademicaGame/views/admin/leerMaterias.html&#x27;), (&lt;lazyT &#x27;Layout&#x27;&gt;, False, &#x27;/admin/default/edit/AcademicaGame/views/layout.html&#x27;), (&lt;lazyT &#x27;Stylesheet&#x27;&gt;, False, &#x27;/admin/default/edit/AcademicaGame/static/css/web2py.css&#x27;), (&lt;lazyT &#x27;DB Model&#x27;&gt;, False, &#x27;/admin/default/edit/AcademicaGame/models/db.py&#x27;), (&lt;lazyT &#x27;Menu Model&#x27;&gt;, False, &#x27;/admin/default/edit/AcademicaGame/models/menu.py&#x27;), (&lt;lazyT &#x27;Database&#x27;&gt;, False, &#x27;/AcademicaGame/appadmin/index&#x27;), (&lt;lazyT &#x27;Errors&#x27;&gt;, False, &#x27;/admin/default/errors/AcademicaGame&#x27;), (&lt;lazyT &#x27;About&#x27;&gt;, False, &#x27;/admin/default/about/AcademicaGame&#x27;)]</div></td></tr></table></div></td></tr><tr><td><div><table><tr><td><div>web2py.com</div></td></tr><tr><td><div>False</div></td></tr><tr><td><div>http://www.web2py.com</div></td></tr><tr><td><div>[(&lt;lazyT &#x27;Download&#x27;&gt;, False, &#x27;http://www.web2py.com/examples/default/download&#x27;), (&lt;lazyT &#x27;Support&#x27;&gt;, False, &#x27;http://www.web2py.com/examples/default/support&#x27;), (&lt;lazyT &#x27;Demo&#x27;&gt;, False, &#x27;http://web2py.com/demo_admin&#x27;), (&lt;lazyT &#x27;Quick Examples&#x27;&gt;, False, &#x27;http://web2py.com/examples/default/examples&#x27;), (&lt;lazyT &#x27;FAQ&#x27;&gt;, False, &#x27;http://web2py.com/AlterEgo&#x27;), (&lt;lazyT &#x27;Videos&#x27;&gt;, False, &#x27;http://www.web2py.com/examples/default/videos/&#x27;), (&lt;lazyT &#x27;Free Applications&#x27;&gt;, False, &#x27;http://web2py.com/appliances&#x27;), (&lt;lazyT &#x27;Plugins&#x27;&gt;, False, &#x27;http://web2py.com/plugins&#x27;), (&lt;lazyT &#x27;Layouts&#x27;&gt;, False, &#x27;http://web2py.com/layouts&#x27;), (&lt;lazyT &#x27;Recipes&#x27;&gt;, False, &#x27;http://web2pyslices.com/&#x27;), (&lt;lazyT &#x27;Semantic&#x27;&gt;, False, &#x27;http://web2py.com/semantic&#x27;)]</div></td></tr></table></div></td></tr><tr><td><div><table><tr><td><div>Documentaci\xc3\xb3n</div></td></tr><tr><td><div>False</div></td></tr><tr><td><div>http://www.web2py.com/book</div></td></tr><tr><td><div>[(&lt;lazyT &#x27;Preface&#x27;&gt;, False, &#x27;http://www.web2py.com/book/default/chapter/00&#x27;), (&lt;lazyT &#x27;Introduction&#x27;&gt;, False, &#x27;http://www.web2py.com/book/default/chapter/01&#x27;), (&lt;lazyT &#x27;Python&#x27;&gt;, False, &#x27;http://www.web2py.com/book/default/chapter/02&#x27;), (&lt;lazyT &#x27;Overview&#x27;&gt;, False, &#x27;http://www.web2py.com/book/default/chapter/03&#x27;), (&lt;lazyT &#x27;The Core&#x27;&gt;, False, &#x27;http://www.web2py.com/book/default/chapter/04&#x27;), (&lt;lazyT &#x27;The Views&#x27;&gt;, False, &#x27;http://www.web2py.com/book/default/chapter/05&#x27;), (&lt;lazyT &#x27;Database&#x27;&gt;, False, &#x27;http://www.web2py.com/book/default/chapter/06&#x27;), (&lt;lazyT &#x27;Forms and Validators&#x27;&gt;, False, &#x27;http://www.web2py.com/book/default/chapter/07&#x27;), (&lt;lazyT &#x27;Email and SMS&#x27;&gt;, False, &#x27;http://www.web2py.com/book/default/chapter/08&#x27;), (&lt;lazyT &#x27;Access Control&#x27;&gt;, False, &#x27;http://www.web2py.com/book/default/chapter/09&#x27;), (&lt;lazyT &#x27;Services&#x27;&gt;, False, &#x27;http://www.web2py.com/book/default/chapter/10&#x27;), (&lt;lazyT &#x27;Ajax Recipes&#x27;&gt;, False, &#x27;http://www.web2py.com/book/default/chapter/11&#x27;), (&lt;lazyT &#x27;Components and Plugins&#x27;&gt;, False, &#x27;http://www.web2py.com/book/default/chapter/12&#x27;), (&lt;lazyT &#x27;Deployment Recipes&#x27;&gt;, False, &#x27;http://www.web2py.com/book/default/chapter/13&#x27;), (&lt;lazyT &#x27;Other Recipes&#x27;&gt;, False, &#x27;http://www.web2py.com/book/default/chapter/14&#x27;), (&lt;lazyT &#x27;Buy this book&#x27;&gt;, False, &#x27;http://stores.lulu.com/web2py&#x27;)]</div></td></tr></table></div></td></tr><tr><td><div><table><tr><td><div>Comunidad</div></td></tr><tr><td><div>False</div></td></tr><tr><td><div>None</div></td></tr><tr><td><div>[(&lt;lazyT &#x27;Groups&#x27;&gt;, False, &#x27;http://www.web2py.com/examples/default/usergroups&#x27;), (&lt;lazyT &#x27;Twitter&#x27;&gt;, False, &#x27;http://twitter.com/web2py&#x27;), (&lt;lazyT &#x27;Live Chat&#x27;&gt;, False, &#x27;http://webchat.freenode.net/?channels=web2py&#x27;)]</div></td></tr></table></div></td></tr><tr><td><div><table><tr><td><div>Plugins</div></td></tr><tr><td><div>False</div></td></tr><tr><td><div>None</div></td></tr><tr><td><div>[(&#x27;plugin_wiki&#x27;, False, &#x27;http://web2py.com/examples/default/download&#x27;), (&lt;lazyT &#x27;Other Plugins&#x27;&gt;, False, &#x27;http://web2py.com/plugins&#x27;), (&lt;lazyT &#x27;Layout Plugins&#x27;&gt;, False, &#x27;http://web2py.com/layouts&#x27;)]</div></td></tr></table></div></td></tr></table></div></td></tr></table></div></td></tr></table></div></td></tr><tr><td style="font-weight:bold;vertical-align:top;">meta</td><td style="vertical-align:top;">:</td><td><div><table><tr><td style="font-weight:bold;vertical-align:top;">author</td><td style="vertical-align:top;">:</td><td><div>Your Name &lt;you@example.com&gt;</div></td></tr><tr><td style="font-weight:bold;vertical-align:top;">generator</td><td style="vertical-align:top;">:</td><td><div>Web2py Web Framework</div></td></tr><tr><td style="font-weight:bold;vertical-align:top;">keywords</td><td style="vertical-align:top;">:</td><td><div>web2py, python, framework</div></td></tr></table></div></td></tr><tr><td style="font-weight:bold;vertical-align:top;">models_to_run</td><td style="vertical-align:top;">:</td><td><div><table><tr><td><div>^\\w+\\.py$</div></td></tr><tr><td><div>^admin/\\w+\\.py$</div></td></tr><tr><td><div>^admin/leerMaterias/\\w+\\.py$</div></td></tr></table></div></td></tr><tr><td style="font-weight:bold;vertical-align:top;">postprocessing</td><td style="vertical-align:top;">:</td><td><div><table></table></div></td></tr><tr><td style="font-weight:bold;vertical-align:top;">session_client</td><td style="vertical-align:top;">:</td><td><div>127.0.0.1</div></td></tr><tr><td style="font-weight:bold;vertical-align:top;">session_cookie_compression_level</td><td style="vertical-align:top;">:</td><td><div>None</div></td></tr><tr><td style="font-weight:bold;vertical-align:top;">session_cookie_expires</td><td style="vertical-align:top;">:</td><td><div>None</div></td></tr><tr><td style="font-weight:bold;vertical-align:top;">session_cookie_key</td><td style="vertical-align:top;">:</td><td><div>None</div></td></tr><tr><td style="font-weight:bold;vertical-align:top;">session_data_name</td><td style="vertical-align:top;">:</td><td><div>session_data_academicagame</div></td></tr><tr><td style="font-weight:bold;vertical-align:top;">session_file</td><td style="vertical-align:top;">:</td><td><div>&lt;open file &#x27;/home/eddiel/ProyectoTerminal/Web2py/web2py/applications/AcademicaGame/sessions/127.0.0.1-df27ef74-711a-45e0-8a58-70a7ee2db084&#x27;, mode &#x27;rb+&#x27; at 0xad37cde0&gt;</div></td></tr><tr><td style="font-weight:bold;vertical-align:top;">session_filename</td><td style="vertical-align:top;">:</td><td><div>/home/eddiel/ProyectoTerminal/Web2py/web2py/applications/AcademicaGame/sessions/127.0.0.1-df27ef74-711a-45e0-8a58-70a7ee2db084</div></td></tr><tr><td style="font-weight:bold;vertical-align:top;">session_hash</td><td style="vertical-align:top;">:</td><td><div>50fdbeeac7400ca91f1a665e48b24f64</div></td></tr><tr><td style="font-weight:bold;vertical-align:top;">session_id</td><td style="vertical-align:top;">:</td><td><div>127.0.0.1-df27ef74-711a-45e0-8a58-70a7ee2db084</div></td></tr><tr><td style="font-weight:bold;vertical-align:top;">session_id_name</td><td style="vertical-align:top;">:</td><td><div>session_id_academicagame</div></td></tr><tr><td style="font-weight:bold;vertical-align:top;">session_locked</td><td style="vertical-align:top;">:</td><td><div>True</div></td></tr><tr><td style="font-weight:bold;vertical-align:top;">session_masterapp</td><td style="vertical-align:top;">:</td><td><div>AcademicaGame</div></td></tr><tr><td style="font-weight:bold;vertical-align:top;">session_new</td><td style="vertical-align:top;">:</td><td><div>False</div></td></tr><tr><td style="font-weight:bold;vertical-align:top;">session_storage_type</td><td style="vertical-align:top;">:</td><td><div>file</div></td></tr><tr><td style="font-weight:bold;vertical-align:top;">status</td><td style="vertical-align:top;">:</td><td><div>200</div></td></tr><tr><td style="font-weight:bold;vertical-align:top;">subtitle</td><td style="vertical-align:top;">:</td><td><div></div></td></tr><tr><td style="font-weight:bold;vertical-align:top;">title</td><td style="vertical-align:top;">:</td><td><div>Academicagame</div></td></tr><tr><td style="font-weight:bold;vertical-align:top;">view</td><td style="vertical-align:top;">:</td><td><div>admin/leerMaterias.html</div></td></tr></table></div>'
tRp236
sS'locals'
p237
(dp238
S'name'
p239
S"'IdTipoMateria'"
p240
sS'fields'
p241
S"{'Clave': 'II0101', 'Creditos': 8, 'IdTipoMateria': 1L, 'Media': 8, 'Nombre': u'\\xc1lgebra y Geometr\\xeda Anal\\xedtica', 'Varianza': 1}"
p242
sS'self'
p243
S'<Table Materia (id,IdAcademia,Nombre,Media,Varianza,Creditos,Ciclo,IDTipoMateria,Clave)>'
p244
sS'update'
p245
S'False'
p246
sS'value'
p247
S'8'
sS'field'
p248
S'<gluon.dal.Field object>'
p249
sS'new_fields'
p250
S"{'Creditos': (<gluon.dal.Field object>, 8), 'Media': (<gluon.dal.Field object>, 8), 'Varianza': (<gluon.dal.Field object>, 1)}"
p251
sssS'traceback'
p252
S'Traceback (most recent call last):\n  File "/home/eddiel/ProyectoTerminal/Web2py/web2py/gluon/restricted.py", line 220, in restricted\n    exec ccode in environment\n  File "/home/eddiel/ProyectoTerminal/Web2py/web2py/applications/AcademicaGame/controllers/admin.py", line 72, in <module>\n  File "/home/eddiel/ProyectoTerminal/Web2py/web2py/gluon/globals.py", line 385, in <lambda>\n    self._caller = lambda f: f()\n  File "/home/eddiel/ProyectoTerminal/Web2py/web2py/applications/AcademicaGame/controllers/admin.py", line 43, in leerMaterias\n    Varianza=Varianza,Clave=ClaveMateria,IdTipoMateria=Tipo.id)\n  File "/home/eddiel/ProyectoTerminal/Web2py/web2py/gluon/dal.py", line 9182, in update_or_insert\n    newid = self.insert(**values)\n  File "/home/eddiel/ProyectoTerminal/Web2py/web2py/gluon/dal.py", line 9114, in insert\n    ret =  self._db._adapter.insert(self, self._listify(fields))\n  File "/home/eddiel/ProyectoTerminal/Web2py/web2py/gluon/dal.py", line 9040, in _listify\n    \'Field %s does not belong to the table\' % name)\nSyntaxError: Field IdTipoMateria does not belong to the table\n'
p253
s.