(dp1
S'output'
p2
S"<type 'exceptions.TypeError'> long() argument must be a string or a number, not 'Element'"
p3
sS'layer'
p4
S'/home/eddiel/ProyectoTerminal/Web2py/web2py/applications/AcademicaGame/controllers/admin.py'
p5
sS'code'
p6
S'# coding: utf8\n# intente algo como\ndef index():\n    return dict(message="hello from admin.py")\n\nimport xml.etree.ElementTree as ET\nimport os\ndef leerMaterias():\n    materias=os.path.join(request.folder, \'static\', \'materias.xml\')\n    print materias\n    print \'-------------Iniciando parsing del xml-------------\'\n    tree=ET.parse(materias)\n    root=tree.getroot()\n    Clave=root.get(\'clave\')\n    Carrera=root.get(\'carrera\')\n    print Clave\n    print Carrera\n    print\n    for Academia in root.findall(\'academia\'):\n        print \'---------------------ACADEMIA---------------------\'\n        NombreAcademia = Academia.get(\'nombre\')\n        print NombreAcademia\n        for Materia in Academia.findall(\'materia\'):\n               NombreMateria=Materia.get(\'nombre\')\n               Creditos= Materia.find(\'creditos\')\n               print NombreMateria\n               print \'creditos:{0}\'.format(Creditos.text)\n               print \'\'\n    return locals()\n\ndef leerDocentes():\n    docentes=os.path.join(request.folder, \'static\', \'docentes.xml\')\n    print \'-------------Iniciando parsing del xml-------------\'\n    tree=ET.parse(docentes)\n    root=tree.getroot()\n    for docente in root.findall(\'docente\'):\n        print \'---------------------Docente---------------------\'\n        NombreDocente = docente.find(\'nombre\')\n        Dificultad=docente.find(\'dificultad\')\n        int(format(Dificultad.text))\n        print format(NombreDocente.text)\n        print Dificultad\n        db.Docente.update_or_insert(Nombre=NombreDocente,Dificultad=Dificultad)\n    session.flash=("Docentes insertados correctamente")\n    redirect(URL(\'index\'))\n    return locals()\n\nresponse._vars=response._caller(leerDocentes)\n'
p7
sS'snapshot'
p8
(dp9
sS'traceback'
p10
S'Traceback (most recent call last):\n  File "/home/eddiel/ProyectoTerminal/Web2py/web2py/gluon/restricted.py", line 220, in restricted\n    exec ccode in environment\n  File "/home/eddiel/ProyectoTerminal/Web2py/web2py/applications/AcademicaGame/controllers/admin.py", line 48, in <module>\n  File "/home/eddiel/ProyectoTerminal/Web2py/web2py/gluon/globals.py", line 385, in <lambda>\n    self._caller = lambda f: f()\n  File "/home/eddiel/ProyectoTerminal/Web2py/web2py/applications/AcademicaGame/controllers/admin.py", line 43, in leerDocentes\n    db.Docente.update_or_insert(Nombre=NombreDocente,Dificultad=Dificultad)\n  File "/home/eddiel/ProyectoTerminal/Web2py/web2py/gluon/dal.py", line 9173, in update_or_insert\n    record = self(**values)\n  File "/home/eddiel/ProyectoTerminal/Web2py/web2py/gluon/dal.py", line 8938, in __call__\n    return self._db(query).select(limitby=(0,1),for_update=for_update, orderby=orderby, orderby_on_limitby=False).first()\n  File "/home/eddiel/ProyectoTerminal/Web2py/web2py/gluon/dal.py", line 10525, in select\n    return adapter.select(self.query,fields,attributes)\n  File "/home/eddiel/ProyectoTerminal/Web2py/web2py/gluon/dal.py", line 2458, in select\n    return super(SQLiteAdapter, self).select(query, fields, attributes)\n  File "/home/eddiel/ProyectoTerminal/Web2py/web2py/gluon/dal.py", line 1869, in select\n    sql = self._select(query, fields, attributes)\n  File "/home/eddiel/ProyectoTerminal/Web2py/web2py/gluon/dal.py", line 1774, in _select\n    sql_w = \' WHERE \' + self.expand(query) if query else \'\'\n  File "/home/eddiel/ProyectoTerminal/Web2py/web2py/gluon/dal.py", line 1541, in expand\n    out = op(first, second, **optional_args)\n  File "/home/eddiel/ProyectoTerminal/Web2py/web2py/gluon/dal.py", line 1381, in AND\n    return \'(%s AND %s)\' % (self.expand(first), self.expand(second))\n  File "/home/eddiel/ProyectoTerminal/Web2py/web2py/gluon/dal.py", line 1541, in expand\n    out = op(first, second, **optional_args)\n  File "/home/eddiel/ProyectoTerminal/Web2py/web2py/gluon/dal.py", line 1438, in EQ\n    self.expand(second, first.type))\n  File "/home/eddiel/ProyectoTerminal/Web2py/web2py/gluon/dal.py", line 1552, in expand\n    return str(self.represent(expression,field_type))\n  File "/home/eddiel/ProyectoTerminal/Web2py/web2py/gluon/dal.py", line 2007, in represent\n    return str(long(obj))\nTypeError: long() argument must be a string or a number, not \'Element\'\n'
p11
s.